

Microchip MPLAB XC8 Assembler V2.32 build 20210201212658 
                                                                                               Wed Dec 21 21:09:55 2022

Microchip MPLAB XC8 C Compiler v2.32 (Free license) build 20210201212658 Og1 
     1                           	processor	16F1705
     2                           	pagewidth 120
     3                           	opt	flic
     4                           	psect	stringtext1,global,class=STRCODE,delta=2,noexec
     5                           	psect	stringtext2,global,class=STRCODE,delta=2,noexec
     6                           	psect	stringtext3,global,class=STRCODE,delta=2,noexec
     7                           	psect	stringtext4,global,class=STRCODE,delta=2,noexec
     8                           	psect	stringtext5,global,class=STRCODE,delta=2,noexec
     9                           	psect	stringtext6,global,class=STRCODE,delta=2,noexec
    10                           	psect	stringtext7,global,class=STRCODE,delta=2,noexec
    11                           	psect	stringtext8,global,class=STRCODE,delta=2,noexec
    12                           	psect	stringtext9,global,class=STRCODE,delta=2,noexec
    13                           	psect	cinit,global,class=CODE,merge=1,delta=2
    14                           	psect	bssBANK0,global,class=BANK0,space=1,delta=1,noexec
    15                           	psect	clrtext,global,class=CODE,delta=2
    16                           	psect	cstackCOMMON,global,class=COMMON,space=1,delta=1,noexec
    17                           	psect	cstackBANK0,global,class=BANK0,space=1,delta=1,noexec
    18                           	psect	maintext,global,class=CODE,merge=1,split=1,delta=2
    19                           	psect	text1,local,class=CODE,merge=1,delta=2
    20                           	psect	text2,local,class=CODE,merge=1,delta=2
    21                           	psect	text3,local,class=CODE,merge=1,delta=2
    22                           	psect	text4,local,class=CODE,merge=1,delta=2
    23                           	psect	text5,local,class=CODE,merge=1,delta=2
    24                           	psect	text6,local,class=CODE,merge=1,delta=2
    25                           	psect	text7,local,class=CODE,merge=1,delta=2
    26                           	psect	text8,local,class=CODE,merge=1,delta=2
    27                           	psect	text9,local,class=CODE,merge=1,delta=2
    28                           	psect	text10,local,class=CODE,merge=1,delta=2
    29                           	psect	text11,local,class=CODE,merge=1,delta=2
    30                           	psect	text12,local,class=CODE,merge=1,delta=2
    31                           	psect	text13,local,class=CODE,merge=1,delta=2
    32                           	psect	text14,local,class=CODE,merge=1,delta=2
    33                           	psect	text15,local,class=CODE,merge=1,delta=2
    34                           	psect	text16,local,class=CODE,merge=1,delta=2
    35                           	psect	text17,local,class=CODE,merge=1,delta=2
    36                           	psect	text18,local,class=CODE,merge=1,delta=2
    37                           	psect	text19,local,class=CODE,merge=1,delta=2
    38                           	psect	text20,local,class=CODE,merge=1,delta=2
    39                           	psect	intentry,global,class=CODE,delta=2
    40                           	psect	text22,local,class=CODE,merge=1,delta=2
    41                           	psect	text23,local,class=CODE,merge=1,delta=2
    42                           	psect	text24,local,class=CODE,merge=1,delta=2
    43                           	psect	text25,local,class=CODE,merge=1,delta=2
    44                           	psect	text26,local,class=CODE,merge=1,delta=2,group=1
    45                           	psect	idloc,global,abs,ovrld,class=IDLOC,space=5,delta=2,noexec
    46                           	psect	config,global,abs,ovrld,class=CONFIG,space=4,delta=2,noexec
    47                           	dabs	1,0x7E,2
    48  0000                     
    49                           ; Version 2.40
    50                           ; Generated 17/11/2021 GMT
    51                           ; 
    52                           ; Copyright © 2021, Microchip Technology Inc. and its subsidiaries ("Microchip")
    53                           ; All rights reserved.
    54                           ; 
    55                           ; This software is developed by Microchip Technology Inc. and its subsidiaries ("Microch
      +                          ip").
    56                           ; 
    57                           ; Redistribution and use in source and binary forms, with or without modification, are
    58                           ; permitted provided that the following conditions are met:
    59                           ; 
    60                           ;     1. Redistributions of source code must retain the above copyright notice, this lis
      +                          t of
    61                           ;        conditions and the following disclaimer.
    62                           ; 
    63                           ;     2. Redistributions in binary form must reproduce the above copyright notice, this 
      +                          list
    64                           ;        of conditions and the following disclaimer in the documentation and/or other
    65                           ;        materials provided with the distribution. Publication is not required when
    66                           ;        this file is used in an embedded application.
    67                           ; 
    68                           ;     3. Microchip's name may not be used to endorse or promote products derived from th
      +                          is
    69                           ;        software without specific prior written permission.
    70                           ; 
    71                           ; THIS SOFTWARE IS PROVIDED BY MICROCHIP "AS IS" AND ANY EXPRESS OR IMPLIED WARRANTIES,
    72                           ; INCLUDING, BUT NOT LIMITED TO, THE IMPLIED WARRANTIES OF MERCHANTABILITY AND FITNESS F
      +                          OR
    73                           ; PURPOSE ARE DISCLAIMED.  IN NO EVENT SHALL MICROCHIP BE LIABLE FOR ANY DIRECT, INDIREC
      +                          T,
    74                           ; INCIDENTAL, SPECIAL, EXEMPLARY, OR CONSEQUENTIAL DAMAGES (INCLUDING BUT NOT LIMITED TO
    75                           ; PROCUREMENT OF SUBSTITUTE GOODS OR SERVICES; LOSS OF USE, DATA OR PROFITS; OR BUSINESS
    76                           ; INTERRUPTION) HOWSOEVER CAUSED AND ON ANY THEORY OF LIABILITY, WHETHER IN CONTRACT, ST
      +                          RICT
    77                           ; LIABILITY, OR TORT (INCLUDING NEGLIGENCE OR OTHERWISE) ARISING IN ANY WAY OUT OF THE U
      +                          SE OF
    78                           ; THIS SOFTWARE, EVEN IF ADVISED OF THE POSSIBILITY OF SUCH DAMAGE.
    79                           ; 
    80                           ; 
    81                           ; Code-generator required, PIC16F1705 Definitions
    82                           ; 
    83                           ; SFR Addresses
    84  0000                     	;# 
    85  0001                     	;# 
    86  0002                     	;# 
    87  0003                     	;# 
    88  0004                     	;# 
    89  0005                     	;# 
    90  0006                     	;# 
    91  0007                     	;# 
    92  0008                     	;# 
    93  0009                     	;# 
    94  000A                     	;# 
    95  000B                     	;# 
    96  000C                     	;# 
    97  000E                     	;# 
    98  0011                     	;# 
    99  0012                     	;# 
   100  0013                     	;# 
   101  0015                     	;# 
   102  0016                     	;# 
   103  0016                     	;# 
   104  0017                     	;# 
   105  0018                     	;# 
   106  0019                     	;# 
   107  001A                     	;# 
   108  001B                     	;# 
   109  001C                     	;# 
   110  008C                     	;# 
   111  008E                     	;# 
   112  0091                     	;# 
   113  0092                     	;# 
   114  0093                     	;# 
   115  0095                     	;# 
   116  0096                     	;# 
   117  0097                     	;# 
   118  0098                     	;# 
   119  0099                     	;# 
   120  009A                     	;# 
   121  009B                     	;# 
   122  009B                     	;# 
   123  009C                     	;# 
   124  009D                     	;# 
   125  009E                     	;# 
   126  009F                     	;# 
   127  010C                     	;# 
   128  010E                     	;# 
   129  0111                     	;# 
   130  0112                     	;# 
   131  0113                     	;# 
   132  0114                     	;# 
   133  0115                     	;# 
   134  0116                     	;# 
   135  0117                     	;# 
   136  0118                     	;# 
   137  0119                     	;# 
   138  011C                     	;# 
   139  018C                     	;# 
   140  018E                     	;# 
   141  0191                     	;# 
   142  0191                     	;# 
   143  0192                     	;# 
   144  0193                     	;# 
   145  0193                     	;# 
   146  0194                     	;# 
   147  0195                     	;# 
   148  0196                     	;# 
   149  0197                     	;# 
   150  0199                     	;# 
   151  0199                     	;# 
   152  0199                     	;# 
   153  019A                     	;# 
   154  019A                     	;# 
   155  019A                     	;# 
   156  019B                     	;# 
   157  019B                     	;# 
   158  019B                     	;# 
   159  019B                     	;# 
   160  019B                     	;# 
   161  019C                     	;# 
   162  019C                     	;# 
   163  019C                     	;# 
   164  019D                     	;# 
   165  019D                     	;# 
   166  019D                     	;# 
   167  019E                     	;# 
   168  019E                     	;# 
   169  019E                     	;# 
   170  019F                     	;# 
   171  019F                     	;# 
   172  019F                     	;# 
   173  019F                     	;# 
   174  019F                     	;# 
   175  020C                     	;# 
   176  020E                     	;# 
   177  0211                     	;# 
   178  0211                     	;# 
   179  0212                     	;# 
   180  0212                     	;# 
   181  0213                     	;# 
   182  0213                     	;# 
   183  0214                     	;# 
   184  0214                     	;# 
   185  0215                     	;# 
   186  0215                     	;# 
   187  0215                     	;# 
   188  0215                     	;# 
   189  0216                     	;# 
   190  0216                     	;# 
   191  0217                     	;# 
   192  0217                     	;# 
   193  028C                     	;# 
   194  028E                     	;# 
   195  0291                     	;# 
   196  0291                     	;# 
   197  0292                     	;# 
   198  0293                     	;# 
   199  0293                     	;# 
   200  0298                     	;# 
   201  0298                     	;# 
   202  0299                     	;# 
   203  029A                     	;# 
   204  029A                     	;# 
   205  029E                     	;# 
   206  030C                     	;# 
   207  030E                     	;# 
   208  038C                     	;# 
   209  038E                     	;# 
   210  0391                     	;# 
   211  0392                     	;# 
   212  0393                     	;# 
   213  0397                     	;# 
   214  0398                     	;# 
   215  0399                     	;# 
   216  0415                     	;# 
   217  0416                     	;# 
   218  0417                     	;# 
   219  041C                     	;# 
   220  041D                     	;# 
   221  041E                     	;# 
   222  0511                     	;# 
   223  0515                     	;# 
   224  0617                     	;# 
   225  0618                     	;# 
   226  0619                     	;# 
   227  0619                     	;# 
   228  061A                     	;# 
   229  061B                     	;# 
   230  061C                     	;# 
   231  061C                     	;# 
   232  0691                     	;# 
   233  0692                     	;# 
   234  0693                     	;# 
   235  0694                     	;# 
   236  0695                     	;# 
   237  0696                     	;# 
   238  0697                     	;# 
   239  0698                     	;# 
   240  0699                     	;# 
   241  069A                     	;# 
   242  069B                     	;# 
   243  069C                     	;# 
   244  069D                     	;# 
   245  069E                     	;# 
   246  069F                     	;# 
   247  0E0F                     	;# 
   248  0E10                     	;# 
   249  0E11                     	;# 
   250  0E12                     	;# 
   251  0E13                     	;# 
   252  0E14                     	;# 
   253  0E15                     	;# 
   254  0E17                     	;# 
   255  0E20                     	;# 
   256  0E21                     	;# 
   257  0E22                     	;# 
   258  0E24                     	;# 
   259  0E25                     	;# 
   260  0E28                     	;# 
   261  0E29                     	;# 
   262  0E2A                     	;# 
   263  0E2B                     	;# 
   264  0E90                     	;# 
   265  0E91                     	;# 
   266  0E92                     	;# 
   267  0E94                     	;# 
   268  0E95                     	;# 
   269  0EA0                     	;# 
   270  0EA1                     	;# 
   271  0EA2                     	;# 
   272  0EA3                     	;# 
   273  0EA4                     	;# 
   274  0EA5                     	;# 
   275  0F0F                     	;# 
   276  0F10                     	;# 
   277  0F11                     	;# 
   278  0F12                     	;# 
   279  0F13                     	;# 
   280  0F14                     	;# 
   281  0F15                     	;# 
   282  0F16                     	;# 
   283  0F17                     	;# 
   284  0F18                     	;# 
   285  0F19                     	;# 
   286  0F1A                     	;# 
   287  0F1B                     	;# 
   288  0F1C                     	;# 
   289  0F1D                     	;# 
   290  0F1E                     	;# 
   291  0F1F                     	;# 
   292  0F20                     	;# 
   293  0F21                     	;# 
   294  0F22                     	;# 
   295  0F23                     	;# 
   296  0F24                     	;# 
   297  0F25                     	;# 
   298  0F26                     	;# 
   299  0F27                     	;# 
   300  0F28                     	;# 
   301  0F29                     	;# 
   302  0F2A                     	;# 
   303  0F2B                     	;# 
   304  0F2C                     	;# 
   305  0F2D                     	;# 
   306  0F9E                     	;# 
   307  0FE4                     	;# 
   308  0FE5                     	;# 
   309  0FE6                     	;# 
   310  0FE7                     	;# 
   311  0FE8                     	;# 
   312  0FE9                     	;# 
   313  0FEA                     	;# 
   314  0FEB                     	;# 
   315  0FED                     	;# 
   316  0FEE                     	;# 
   317  0FEF                     	;# 
   318  0000                     	;# 
   319  0001                     	;# 
   320  0002                     	;# 
   321  0003                     	;# 
   322  0004                     	;# 
   323  0005                     	;# 
   324  0006                     	;# 
   325  0007                     	;# 
   326  0008                     	;# 
   327  0009                     	;# 
   328  000A                     	;# 
   329  000B                     	;# 
   330  000C                     	;# 
   331  000E                     	;# 
   332  0011                     	;# 
   333  0012                     	;# 
   334  0013                     	;# 
   335  0015                     	;# 
   336  0016                     	;# 
   337  0016                     	;# 
   338  0017                     	;# 
   339  0018                     	;# 
   340  0019                     	;# 
   341  001A                     	;# 
   342  001B                     	;# 
   343  001C                     	;# 
   344  008C                     	;# 
   345  008E                     	;# 
   346  0091                     	;# 
   347  0092                     	;# 
   348  0093                     	;# 
   349  0095                     	;# 
   350  0096                     	;# 
   351  0097                     	;# 
   352  0098                     	;# 
   353  0099                     	;# 
   354  009A                     	;# 
   355  009B                     	;# 
   356  009B                     	;# 
   357  009C                     	;# 
   358  009D                     	;# 
   359  009E                     	;# 
   360  009F                     	;# 
   361  010C                     	;# 
   362  010E                     	;# 
   363  0111                     	;# 
   364  0112                     	;# 
   365  0113                     	;# 
   366  0114                     	;# 
   367  0115                     	;# 
   368  0116                     	;# 
   369  0117                     	;# 
   370  0118                     	;# 
   371  0119                     	;# 
   372  011C                     	;# 
   373  018C                     	;# 
   374  018E                     	;# 
   375  0191                     	;# 
   376  0191                     	;# 
   377  0192                     	;# 
   378  0193                     	;# 
   379  0193                     	;# 
   380  0194                     	;# 
   381  0195                     	;# 
   382  0196                     	;# 
   383  0197                     	;# 
   384  0199                     	;# 
   385  0199                     	;# 
   386  0199                     	;# 
   387  019A                     	;# 
   388  019A                     	;# 
   389  019A                     	;# 
   390  019B                     	;# 
   391  019B                     	;# 
   392  019B                     	;# 
   393  019B                     	;# 
   394  019B                     	;# 
   395  019C                     	;# 
   396  019C                     	;# 
   397  019C                     	;# 
   398  019D                     	;# 
   399  019D                     	;# 
   400  019D                     	;# 
   401  019E                     	;# 
   402  019E                     	;# 
   403  019E                     	;# 
   404  019F                     	;# 
   405  019F                     	;# 
   406  019F                     	;# 
   407  019F                     	;# 
   408  019F                     	;# 
   409  020C                     	;# 
   410  020E                     	;# 
   411  0211                     	;# 
   412  0211                     	;# 
   413  0212                     	;# 
   414  0212                     	;# 
   415  0213                     	;# 
   416  0213                     	;# 
   417  0214                     	;# 
   418  0214                     	;# 
   419  0215                     	;# 
   420  0215                     	;# 
   421  0215                     	;# 
   422  0215                     	;# 
   423  0216                     	;# 
   424  0216                     	;# 
   425  0217                     	;# 
   426  0217                     	;# 
   427  028C                     	;# 
   428  028E                     	;# 
   429  0291                     	;# 
   430  0291                     	;# 
   431  0292                     	;# 
   432  0293                     	;# 
   433  0293                     	;# 
   434  0298                     	;# 
   435  0298                     	;# 
   436  0299                     	;# 
   437  029A                     	;# 
   438  029A                     	;# 
   439  029E                     	;# 
   440  030C                     	;# 
   441  030E                     	;# 
   442  038C                     	;# 
   443  038E                     	;# 
   444  0391                     	;# 
   445  0392                     	;# 
   446  0393                     	;# 
   447  0397                     	;# 
   448  0398                     	;# 
   449  0399                     	;# 
   450  0415                     	;# 
   451  0416                     	;# 
   452  0417                     	;# 
   453  041C                     	;# 
   454  041D                     	;# 
   455  041E                     	;# 
   456  0511                     	;# 
   457  0515                     	;# 
   458  0617                     	;# 
   459  0618                     	;# 
   460  0619                     	;# 
   461  0619                     	;# 
   462  061A                     	;# 
   463  061B                     	;# 
   464  061C                     	;# 
   465  061C                     	;# 
   466  0691                     	;# 
   467  0692                     	;# 
   468  0693                     	;# 
   469  0694                     	;# 
   470  0695                     	;# 
   471  0696                     	;# 
   472  0697                     	;# 
   473  0698                     	;# 
   474  0699                     	;# 
   475  069A                     	;# 
   476  069B                     	;# 
   477  069C                     	;# 
   478  069D                     	;# 
   479  069E                     	;# 
   480  069F                     	;# 
   481  0E0F                     	;# 
   482  0E10                     	;# 
   483  0E11                     	;# 
   484  0E12                     	;# 
   485  0E13                     	;# 
   486  0E14                     	;# 
   487  0E15                     	;# 
   488  0E17                     	;# 
   489  0E20                     	;# 
   490  0E21                     	;# 
   491  0E22                     	;# 
   492  0E24                     	;# 
   493  0E25                     	;# 
   494  0E28                     	;# 
   495  0E29                     	;# 
   496  0E2A                     	;# 
   497  0E2B                     	;# 
   498  0E90                     	;# 
   499  0E91                     	;# 
   500  0E92                     	;# 
   501  0E94                     	;# 
   502  0E95                     	;# 
   503  0EA0                     	;# 
   504  0EA1                     	;# 
   505  0EA2                     	;# 
   506  0EA3                     	;# 
   507  0EA4                     	;# 
   508  0EA5                     	;# 
   509  0F0F                     	;# 
   510  0F10                     	;# 
   511  0F11                     	;# 
   512  0F12                     	;# 
   513  0F13                     	;# 
   514  0F14                     	;# 
   515  0F15                     	;# 
   516  0F16                     	;# 
   517  0F17                     	;# 
   518  0F18                     	;# 
   519  0F19                     	;# 
   520  0F1A                     	;# 
   521  0F1B                     	;# 
   522  0F1C                     	;# 
   523  0F1D                     	;# 
   524  0F1E                     	;# 
   525  0F1F                     	;# 
   526  0F20                     	;# 
   527  0F21                     	;# 
   528  0F22                     	;# 
   529  0F23                     	;# 
   530  0F24                     	;# 
   531  0F25                     	;# 
   532  0F26                     	;# 
   533  0F27                     	;# 
   534  0F28                     	;# 
   535  0F29                     	;# 
   536  0F2A                     	;# 
   537  0F2B                     	;# 
   538  0F2C                     	;# 
   539  0F2D                     	;# 
   540  0F9E                     	;# 
   541  0FE4                     	;# 
   542  0FE5                     	;# 
   543  0FE6                     	;# 
   544  0FE7                     	;# 
   545  0FE8                     	;# 
   546  0FE9                     	;# 
   547  0FEA                     	;# 
   548  0FEB                     	;# 
   549  0FED                     	;# 
   550  0FEE                     	;# 
   551  0FEF                     	;# 
   552  0000                     	;# 
   553  0001                     	;# 
   554  0002                     	;# 
   555  0003                     	;# 
   556  0004                     	;# 
   557  0005                     	;# 
   558  0006                     	;# 
   559  0007                     	;# 
   560  0008                     	;# 
   561  0009                     	;# 
   562  000A                     	;# 
   563  000B                     	;# 
   564  000C                     	;# 
   565  000E                     	;# 
   566  0011                     	;# 
   567  0012                     	;# 
   568  0013                     	;# 
   569  0015                     	;# 
   570  0016                     	;# 
   571  0016                     	;# 
   572  0017                     	;# 
   573  0018                     	;# 
   574  0019                     	;# 
   575  001A                     	;# 
   576  001B                     	;# 
   577  001C                     	;# 
   578  008C                     	;# 
   579  008E                     	;# 
   580  0091                     	;# 
   581  0092                     	;# 
   582  0093                     	;# 
   583  0095                     	;# 
   584  0096                     	;# 
   585  0097                     	;# 
   586  0098                     	;# 
   587  0099                     	;# 
   588  009A                     	;# 
   589  009B                     	;# 
   590  009B                     	;# 
   591  009C                     	;# 
   592  009D                     	;# 
   593  009E                     	;# 
   594  009F                     	;# 
   595  010C                     	;# 
   596  010E                     	;# 
   597  0111                     	;# 
   598  0112                     	;# 
   599  0113                     	;# 
   600  0114                     	;# 
   601  0115                     	;# 
   602  0116                     	;# 
   603  0117                     	;# 
   604  0118                     	;# 
   605  0119                     	;# 
   606  011C                     	;# 
   607  018C                     	;# 
   608  018E                     	;# 
   609  0191                     	;# 
   610  0191                     	;# 
   611  0192                     	;# 
   612  0193                     	;# 
   613  0193                     	;# 
   614  0194                     	;# 
   615  0195                     	;# 
   616  0196                     	;# 
   617  0197                     	;# 
   618  0199                     	;# 
   619  0199                     	;# 
   620  0199                     	;# 
   621  019A                     	;# 
   622  019A                     	;# 
   623  019A                     	;# 
   624  019B                     	;# 
   625  019B                     	;# 
   626  019B                     	;# 
   627  019B                     	;# 
   628  019B                     	;# 
   629  019C                     	;# 
   630  019C                     	;# 
   631  019C                     	;# 
   632  019D                     	;# 
   633  019D                     	;# 
   634  019D                     	;# 
   635  019E                     	;# 
   636  019E                     	;# 
   637  019E                     	;# 
   638  019F                     	;# 
   639  019F                     	;# 
   640  019F                     	;# 
   641  019F                     	;# 
   642  019F                     	;# 
   643  020C                     	;# 
   644  020E                     	;# 
   645  0211                     	;# 
   646  0211                     	;# 
   647  0212                     	;# 
   648  0212                     	;# 
   649  0213                     	;# 
   650  0213                     	;# 
   651  0214                     	;# 
   652  0214                     	;# 
   653  0215                     	;# 
   654  0215                     	;# 
   655  0215                     	;# 
   656  0215                     	;# 
   657  0216                     	;# 
   658  0216                     	;# 
   659  0217                     	;# 
   660  0217                     	;# 
   661  028C                     	;# 
   662  028E                     	;# 
   663  0291                     	;# 
   664  0291                     	;# 
   665  0292                     	;# 
   666  0293                     	;# 
   667  0293                     	;# 
   668  0298                     	;# 
   669  0298                     	;# 
   670  0299                     	;# 
   671  029A                     	;# 
   672  029A                     	;# 
   673  029E                     	;# 
   674  030C                     	;# 
   675  030E                     	;# 
   676  038C                     	;# 
   677  038E                     	;# 
   678  0391                     	;# 
   679  0392                     	;# 
   680  0393                     	;# 
   681  0397                     	;# 
   682  0398                     	;# 
   683  0399                     	;# 
   684  0415                     	;# 
   685  0416                     	;# 
   686  0417                     	;# 
   687  041C                     	;# 
   688  041D                     	;# 
   689  041E                     	;# 
   690  0511                     	;# 
   691  0515                     	;# 
   692  0617                     	;# 
   693  0618                     	;# 
   694  0619                     	;# 
   695  0619                     	;# 
   696  061A                     	;# 
   697  061B                     	;# 
   698  061C                     	;# 
   699  061C                     	;# 
   700  0691                     	;# 
   701  0692                     	;# 
   702  0693                     	;# 
   703  0694                     	;# 
   704  0695                     	;# 
   705  0696                     	;# 
   706  0697                     	;# 
   707  0698                     	;# 
   708  0699                     	;# 
   709  069A                     	;# 
   710  069B                     	;# 
   711  069C                     	;# 
   712  069D                     	;# 
   713  069E                     	;# 
   714  069F                     	;# 
   715  0E0F                     	;# 
   716  0E10                     	;# 
   717  0E11                     	;# 
   718  0E12                     	;# 
   719  0E13                     	;# 
   720  0E14                     	;# 
   721  0E15                     	;# 
   722  0E17                     	;# 
   723  0E20                     	;# 
   724  0E21                     	;# 
   725  0E22                     	;# 
   726  0E24                     	;# 
   727  0E25                     	;# 
   728  0E28                     	;# 
   729  0E29                     	;# 
   730  0E2A                     	;# 
   731  0E2B                     	;# 
   732  0E90                     	;# 
   733  0E91                     	;# 
   734  0E92                     	;# 
   735  0E94                     	;# 
   736  0E95                     	;# 
   737  0EA0                     	;# 
   738  0EA1                     	;# 
   739  0EA2                     	;# 
   740  0EA3                     	;# 
   741  0EA4                     	;# 
   742  0EA5                     	;# 
   743  0F0F                     	;# 
   744  0F10                     	;# 
   745  0F11                     	;# 
   746  0F12                     	;# 
   747  0F13                     	;# 
   748  0F14                     	;# 
   749  0F15                     	;# 
   750  0F16                     	;# 
   751  0F17                     	;# 
   752  0F18                     	;# 
   753  0F19                     	;# 
   754  0F1A                     	;# 
   755  0F1B                     	;# 
   756  0F1C                     	;# 
   757  0F1D                     	;# 
   758  0F1E                     	;# 
   759  0F1F                     	;# 
   760  0F20                     	;# 
   761  0F21                     	;# 
   762  0F22                     	;# 
   763  0F23                     	;# 
   764  0F24                     	;# 
   765  0F25                     	;# 
   766  0F26                     	;# 
   767  0F27                     	;# 
   768  0F28                     	;# 
   769  0F29                     	;# 
   770  0F2A                     	;# 
   771  0F2B                     	;# 
   772  0F2C                     	;# 
   773  0F2D                     	;# 
   774  0F9E                     	;# 
   775  0FE4                     	;# 
   776  0FE5                     	;# 
   777  0FE6                     	;# 
   778  0FE7                     	;# 
   779  0FE8                     	;# 
   780  0FE9                     	;# 
   781  0FEA                     	;# 
   782  0FEB                     	;# 
   783  0FED                     	;# 
   784  0FEE                     	;# 
   785  0FEF                     	;# 
   786  0000                     	;# 
   787  0001                     	;# 
   788  0002                     	;# 
   789  0003                     	;# 
   790  0004                     	;# 
   791  0005                     	;# 
   792  0006                     	;# 
   793  0007                     	;# 
   794  0008                     	;# 
   795  0009                     	;# 
   796  000A                     	;# 
   797  000B                     	;# 
   798  000C                     	;# 
   799  000E                     	;# 
   800  0011                     	;# 
   801  0012                     	;# 
   802  0013                     	;# 
   803  0015                     	;# 
   804  0016                     	;# 
   805  0016                     	;# 
   806  0017                     	;# 
   807  0018                     	;# 
   808  0019                     	;# 
   809  001A                     	;# 
   810  001B                     	;# 
   811  001C                     	;# 
   812  008C                     	;# 
   813  008E                     	;# 
   814  0091                     	;# 
   815  0092                     	;# 
   816  0093                     	;# 
   817  0095                     	;# 
   818  0096                     	;# 
   819  0097                     	;# 
   820  0098                     	;# 
   821  0099                     	;# 
   822  009A                     	;# 
   823  009B                     	;# 
   824  009B                     	;# 
   825  009C                     	;# 
   826  009D                     	;# 
   827  009E                     	;# 
   828  009F                     	;# 
   829  010C                     	;# 
   830  010E                     	;# 
   831  0111                     	;# 
   832  0112                     	;# 
   833  0113                     	;# 
   834  0114                     	;# 
   835  0115                     	;# 
   836  0116                     	;# 
   837  0117                     	;# 
   838  0118                     	;# 
   839  0119                     	;# 
   840  011C                     	;# 
   841  018C                     	;# 
   842  018E                     	;# 
   843  0191                     	;# 
   844  0191                     	;# 
   845  0192                     	;# 
   846  0193                     	;# 
   847  0193                     	;# 
   848  0194                     	;# 
   849  0195                     	;# 
   850  0196                     	;# 
   851  0197                     	;# 
   852  0199                     	;# 
   853  0199                     	;# 
   854  0199                     	;# 
   855  019A                     	;# 
   856  019A                     	;# 
   857  019A                     	;# 
   858  019B                     	;# 
   859  019B                     	;# 
   860  019B                     	;# 
   861  019B                     	;# 
   862  019B                     	;# 
   863  019C                     	;# 
   864  019C                     	;# 
   865  019C                     	;# 
   866  019D                     	;# 
   867  019D                     	;# 
   868  019D                     	;# 
   869  019E                     	;# 
   870  019E                     	;# 
   871  019E                     	;# 
   872  019F                     	;# 
   873  019F                     	;# 
   874  019F                     	;# 
   875  019F                     	;# 
   876  019F                     	;# 
   877  020C                     	;# 
   878  020E                     	;# 
   879  0211                     	;# 
   880  0211                     	;# 
   881  0212                     	;# 
   882  0212                     	;# 
   883  0213                     	;# 
   884  0213                     	;# 
   885  0214                     	;# 
   886  0214                     	;# 
   887  0215                     	;# 
   888  0215                     	;# 
   889  0215                     	;# 
   890  0215                     	;# 
   891  0216                     	;# 
   892  0216                     	;# 
   893  0217                     	;# 
   894  0217                     	;# 
   895  028C                     	;# 
   896  028E                     	;# 
   897  0291                     	;# 
   898  0291                     	;# 
   899  0292                     	;# 
   900  0293                     	;# 
   901  0293                     	;# 
   902  0298                     	;# 
   903  0298                     	;# 
   904  0299                     	;# 
   905  029A                     	;# 
   906  029A                     	;# 
   907  029E                     	;# 
   908  030C                     	;# 
   909  030E                     	;# 
   910  038C                     	;# 
   911  038E                     	;# 
   912  0391                     	;# 
   913  0392                     	;# 
   914  0393                     	;# 
   915  0397                     	;# 
   916  0398                     	;# 
   917  0399                     	;# 
   918  0415                     	;# 
   919  0416                     	;# 
   920  0417                     	;# 
   921  041C                     	;# 
   922  041D                     	;# 
   923  041E                     	;# 
   924  0511                     	;# 
   925  0515                     	;# 
   926  0617                     	;# 
   927  0618                     	;# 
   928  0619                     	;# 
   929  0619                     	;# 
   930  061A                     	;# 
   931  061B                     	;# 
   932  061C                     	;# 
   933  061C                     	;# 
   934  0691                     	;# 
   935  0692                     	;# 
   936  0693                     	;# 
   937  0694                     	;# 
   938  0695                     	;# 
   939  0696                     	;# 
   940  0697                     	;# 
   941  0698                     	;# 
   942  0699                     	;# 
   943  069A                     	;# 
   944  069B                     	;# 
   945  069C                     	;# 
   946  069D                     	;# 
   947  069E                     	;# 
   948  069F                     	;# 
   949  0E0F                     	;# 
   950  0E10                     	;# 
   951  0E11                     	;# 
   952  0E12                     	;# 
   953  0E13                     	;# 
   954  0E14                     	;# 
   955  0E15                     	;# 
   956  0E17                     	;# 
   957  0E20                     	;# 
   958  0E21                     	;# 
   959  0E22                     	;# 
   960  0E24                     	;# 
   961  0E25                     	;# 
   962  0E28                     	;# 
   963  0E29                     	;# 
   964  0E2A                     	;# 
   965  0E2B                     	;# 
   966  0E90                     	;# 
   967  0E91                     	;# 
   968  0E92                     	;# 
   969  0E94                     	;# 
   970  0E95                     	;# 
   971  0EA0                     	;# 
   972  0EA1                     	;# 
   973  0EA2                     	;# 
   974  0EA3                     	;# 
   975  0EA4                     	;# 
   976  0EA5                     	;# 
   977  0F0F                     	;# 
   978  0F10                     	;# 
   979  0F11                     	;# 
   980  0F12                     	;# 
   981  0F13                     	;# 
   982  0F14                     	;# 
   983  0F15                     	;# 
   984  0F16                     	;# 
   985  0F17                     	;# 
   986  0F18                     	;# 
   987  0F19                     	;# 
   988  0F1A                     	;# 
   989  0F1B                     	;# 
   990  0F1C                     	;# 
   991  0F1D                     	;# 
   992  0F1E                     	;# 
   993  0F1F                     	;# 
   994  0F20                     	;# 
   995  0F21                     	;# 
   996  0F22                     	;# 
   997  0F23                     	;# 
   998  0F24                     	;# 
   999  0F25                     	;# 
  1000  0F26                     	;# 
  1001  0F27                     	;# 
  1002  0F28                     	;# 
  1003  0F29                     	;# 
  1004  0F2A                     	;# 
  1005  0F2B                     	;# 
  1006  0F2C                     	;# 
  1007  0F2D                     	;# 
  1008  0F9E                     	;# 
  1009  0FE4                     	;# 
  1010  0FE5                     	;# 
  1011  0FE6                     	;# 
  1012  0FE7                     	;# 
  1013  0FE8                     	;# 
  1014  0FE9                     	;# 
  1015  0FEA                     	;# 
  1016  0FEB                     	;# 
  1017  0FED                     	;# 
  1018  0FEE                     	;# 
  1019  0FEF                     	;# 
  1020  0000                     	;# 
  1021  0001                     	;# 
  1022  0002                     	;# 
  1023  0003                     	;# 
  1024  0004                     	;# 
  1025  0005                     	;# 
  1026  0006                     	;# 
  1027  0007                     	;# 
  1028  0008                     	;# 
  1029  0009                     	;# 
  1030  000A                     	;# 
  1031  000B                     	;# 
  1032  000C                     	;# 
  1033  000E                     	;# 
  1034  0011                     	;# 
  1035  0012                     	;# 
  1036  0013                     	;# 
  1037  0015                     	;# 
  1038  0016                     	;# 
  1039  0016                     	;# 
  1040  0017                     	;# 
  1041  0018                     	;# 
  1042  0019                     	;# 
  1043  001A                     	;# 
  1044  001B                     	;# 
  1045  001C                     	;# 
  1046  008C                     	;# 
  1047  008E                     	;# 
  1048  0091                     	;# 
  1049  0092                     	;# 
  1050  0093                     	;# 
  1051  0095                     	;# 
  1052  0096                     	;# 
  1053  0097                     	;# 
  1054  0098                     	;# 
  1055  0099                     	;# 
  1056  009A                     	;# 
  1057  009B                     	;# 
  1058  009B                     	;# 
  1059  009C                     	;# 
  1060  009D                     	;# 
  1061  009E                     	;# 
  1062  009F                     	;# 
  1063  010C                     	;# 
  1064  010E                     	;# 
  1065  0111                     	;# 
  1066  0112                     	;# 
  1067  0113                     	;# 
  1068  0114                     	;# 
  1069  0115                     	;# 
  1070  0116                     	;# 
  1071  0117                     	;# 
  1072  0118                     	;# 
  1073  0119                     	;# 
  1074  011C                     	;# 
  1075  018C                     	;# 
  1076  018E                     	;# 
  1077  0191                     	;# 
  1078  0191                     	;# 
  1079  0192                     	;# 
  1080  0193                     	;# 
  1081  0193                     	;# 
  1082  0194                     	;# 
  1083  0195                     	;# 
  1084  0196                     	;# 
  1085  0197                     	;# 
  1086  0199                     	;# 
  1087  0199                     	;# 
  1088  0199                     	;# 
  1089  019A                     	;# 
  1090  019A                     	;# 
  1091  019A                     	;# 
  1092  019B                     	;# 
  1093  019B                     	;# 
  1094  019B                     	;# 
  1095  019B                     	;# 
  1096  019B                     	;# 
  1097  019C                     	;# 
  1098  019C                     	;# 
  1099  019C                     	;# 
  1100  019D                     	;# 
  1101  019D                     	;# 
  1102  019D                     	;# 
  1103  019E                     	;# 
  1104  019E                     	;# 
  1105  019E                     	;# 
  1106  019F                     	;# 
  1107  019F                     	;# 
  1108  019F                     	;# 
  1109  019F                     	;# 
  1110  019F                     	;# 
  1111  020C                     	;# 
  1112  020E                     	;# 
  1113  0211                     	;# 
  1114  0211                     	;# 
  1115  0212                     	;# 
  1116  0212                     	;# 
  1117  0213                     	;# 
  1118  0213                     	;# 
  1119  0214                     	;# 
  1120  0214                     	;# 
  1121  0215                     	;# 
  1122  0215                     	;# 
  1123  0215                     	;# 
  1124  0215                     	;# 
  1125  0216                     	;# 
  1126  0216                     	;# 
  1127  0217                     	;# 
  1128  0217                     	;# 
  1129  028C                     	;# 
  1130  028E                     	;# 
  1131  0291                     	;# 
  1132  0291                     	;# 
  1133  0292                     	;# 
  1134  0293                     	;# 
  1135  0293                     	;# 
  1136  0298                     	;# 
  1137  0298                     	;# 
  1138  0299                     	;# 
  1139  029A                     	;# 
  1140  029A                     	;# 
  1141  029E                     	;# 
  1142  030C                     	;# 
  1143  030E                     	;# 
  1144  038C                     	;# 
  1145  038E                     	;# 
  1146  0391                     	;# 
  1147  0392                     	;# 
  1148  0393                     	;# 
  1149  0397                     	;# 
  1150  0398                     	;# 
  1151  0399                     	;# 
  1152  0415                     	;# 
  1153  0416                     	;# 
  1154  0417                     	;# 
  1155  041C                     	;# 
  1156  041D                     	;# 
  1157  041E                     	;# 
  1158  0511                     	;# 
  1159  0515                     	;# 
  1160  0617                     	;# 
  1161  0618                     	;# 
  1162  0619                     	;# 
  1163  0619                     	;# 
  1164  061A                     	;# 
  1165  061B                     	;# 
  1166  061C                     	;# 
  1167  061C                     	;# 
  1168  0691                     	;# 
  1169  0692                     	;# 
  1170  0693                     	;# 
  1171  0694                     	;# 
  1172  0695                     	;# 
  1173  0696                     	;# 
  1174  0697                     	;# 
  1175  0698                     	;# 
  1176  0699                     	;# 
  1177  069A                     	;# 
  1178  069B                     	;# 
  1179  069C                     	;# 
  1180  069D                     	;# 
  1181  069E                     	;# 
  1182  069F                     	;# 
  1183  0E0F                     	;# 
  1184  0E10                     	;# 
  1185  0E11                     	;# 
  1186  0E12                     	;# 
  1187  0E13                     	;# 
  1188  0E14                     	;# 
  1189  0E15                     	;# 
  1190  0E17                     	;# 
  1191  0E20                     	;# 
  1192  0E21                     	;# 
  1193  0E22                     	;# 
  1194  0E24                     	;# 
  1195  0E25                     	;# 
  1196  0E28                     	;# 
  1197  0E29                     	;# 
  1198  0E2A                     	;# 
  1199  0E2B                     	;# 
  1200  0E90                     	;# 
  1201  0E91                     	;# 
  1202  0E92                     	;# 
  1203  0E94                     	;# 
  1204  0E95                     	;# 
  1205  0EA0                     	;# 
  1206  0EA1                     	;# 
  1207  0EA2                     	;# 
  1208  0EA3                     	;# 
  1209  0EA4                     	;# 
  1210  0EA5                     	;# 
  1211  0F0F                     	;# 
  1212  0F10                     	;# 
  1213  0F11                     	;# 
  1214  0F12                     	;# 
  1215  0F13                     	;# 
  1216  0F14                     	;# 
  1217  0F15                     	;# 
  1218  0F16                     	;# 
  1219  0F17                     	;# 
  1220  0F18                     	;# 
  1221  0F19                     	;# 
  1222  0F1A                     	;# 
  1223  0F1B                     	;# 
  1224  0F1C                     	;# 
  1225  0F1D                     	;# 
  1226  0F1E                     	;# 
  1227  0F1F                     	;# 
  1228  0F20                     	;# 
  1229  0F21                     	;# 
  1230  0F22                     	;# 
  1231  0F23                     	;# 
  1232  0F24                     	;# 
  1233  0F25                     	;# 
  1234  0F26                     	;# 
  1235  0F27                     	;# 
  1236  0F28                     	;# 
  1237  0F29                     	;# 
  1238  0F2A                     	;# 
  1239  0F2B                     	;# 
  1240  0F2C                     	;# 
  1241  0F2D                     	;# 
  1242  0F9E                     	;# 
  1243  0FE4                     	;# 
  1244  0FE5                     	;# 
  1245  0FE6                     	;# 
  1246  0FE7                     	;# 
  1247  0FE8                     	;# 
  1248  0FE9                     	;# 
  1249  0FEA                     	;# 
  1250  0FEB                     	;# 
  1251  0FED                     	;# 
  1252  0FEE                     	;# 
  1253  0FEF                     	;# 
  1254  0000                     	;# 
  1255  0001                     	;# 
  1256  0002                     	;# 
  1257  0003                     	;# 
  1258  0004                     	;# 
  1259  0005                     	;# 
  1260  0006                     	;# 
  1261  0007                     	;# 
  1262  0008                     	;# 
  1263  0009                     	;# 
  1264  000A                     	;# 
  1265  000B                     	;# 
  1266  000C                     	;# 
  1267  000E                     	;# 
  1268  0011                     	;# 
  1269  0012                     	;# 
  1270  0013                     	;# 
  1271  0015                     	;# 
  1272  0016                     	;# 
  1273  0016                     	;# 
  1274  0017                     	;# 
  1275  0018                     	;# 
  1276  0019                     	;# 
  1277  001A                     	;# 
  1278  001B                     	;# 
  1279  001C                     	;# 
  1280  008C                     	;# 
  1281  008E                     	;# 
  1282  0091                     	;# 
  1283  0092                     	;# 
  1284  0093                     	;# 
  1285  0095                     	;# 
  1286  0096                     	;# 
  1287  0097                     	;# 
  1288  0098                     	;# 
  1289  0099                     	;# 
  1290  009A                     	;# 
  1291  009B                     	;# 
  1292  009B                     	;# 
  1293  009C                     	;# 
  1294  009D                     	;# 
  1295  009E                     	;# 
  1296  009F                     	;# 
  1297  010C                     	;# 
  1298  010E                     	;# 
  1299  0111                     	;# 
  1300  0112                     	;# 
  1301  0113                     	;# 
  1302  0114                     	;# 
  1303  0115                     	;# 
  1304  0116                     	;# 
  1305  0117                     	;# 
  1306  0118                     	;# 
  1307  0119                     	;# 
  1308  011C                     	;# 
  1309  018C                     	;# 
  1310  018E                     	;# 
  1311  0191                     	;# 
  1312  0191                     	;# 
  1313  0192                     	;# 
  1314  0193                     	;# 
  1315  0193                     	;# 
  1316  0194                     	;# 
  1317  0195                     	;# 
  1318  0196                     	;# 
  1319  0197                     	;# 
  1320  0199                     	;# 
  1321  0199                     	;# 
  1322  0199                     	;# 
  1323  019A                     	;# 
  1324  019A                     	;# 
  1325  019A                     	;# 
  1326  019B                     	;# 
  1327  019B                     	;# 
  1328  019B                     	;# 
  1329  019B                     	;# 
  1330  019B                     	;# 
  1331  019C                     	;# 
  1332  019C                     	;# 
  1333  019C                     	;# 
  1334  019D                     	;# 
  1335  019D                     	;# 
  1336  019D                     	;# 
  1337  019E                     	;# 
  1338  019E                     	;# 
  1339  019E                     	;# 
  1340  019F                     	;# 
  1341  019F                     	;# 
  1342  019F                     	;# 
  1343  019F                     	;# 
  1344  019F                     	;# 
  1345  020C                     	;# 
  1346  020E                     	;# 
  1347  0211                     	;# 
  1348  0211                     	;# 
  1349  0212                     	;# 
  1350  0212                     	;# 
  1351  0213                     	;# 
  1352  0213                     	;# 
  1353  0214                     	;# 
  1354  0214                     	;# 
  1355  0215                     	;# 
  1356  0215                     	;# 
  1357  0215                     	;# 
  1358  0215                     	;# 
  1359  0216                     	;# 
  1360  0216                     	;# 
  1361  0217                     	;# 
  1362  0217                     	;# 
  1363  028C                     	;# 
  1364  028E                     	;# 
  1365  0291                     	;# 
  1366  0291                     	;# 
  1367  0292                     	;# 
  1368  0293                     	;# 
  1369  0293                     	;# 
  1370  0298                     	;# 
  1371  0298                     	;# 
  1372  0299                     	;# 
  1373  029A                     	;# 
  1374  029A                     	;# 
  1375  029E                     	;# 
  1376  030C                     	;# 
  1377  030E                     	;# 
  1378  038C                     	;# 
  1379  038E                     	;# 
  1380  0391                     	;# 
  1381  0392                     	;# 
  1382  0393                     	;# 
  1383  0397                     	;# 
  1384  0398                     	;# 
  1385  0399                     	;# 
  1386  0415                     	;# 
  1387  0416                     	;# 
  1388  0417                     	;# 
  1389  041C                     	;# 
  1390  041D                     	;# 
  1391  041E                     	;# 
  1392  0511                     	;# 
  1393  0515                     	;# 
  1394  0617                     	;# 
  1395  0618                     	;# 
  1396  0619                     	;# 
  1397  0619                     	;# 
  1398  061A                     	;# 
  1399  061B                     	;# 
  1400  061C                     	;# 
  1401  061C                     	;# 
  1402  0691                     	;# 
  1403  0692                     	;# 
  1404  0693                     	;# 
  1405  0694                     	;# 
  1406  0695                     	;# 
  1407  0696                     	;# 
  1408  0697                     	;# 
  1409  0698                     	;# 
  1410  0699                     	;# 
  1411  069A                     	;# 
  1412  069B                     	;# 
  1413  069C                     	;# 
  1414  069D                     	;# 
  1415  069E                     	;# 
  1416  069F                     	;# 
  1417  0E0F                     	;# 
  1418  0E10                     	;# 
  1419  0E11                     	;# 
  1420  0E12                     	;# 
  1421  0E13                     	;# 
  1422  0E14                     	;# 
  1423  0E15                     	;# 
  1424  0E17                     	;# 
  1425  0E20                     	;# 
  1426  0E21                     	;# 
  1427  0E22                     	;# 
  1428  0E24                     	;# 
  1429  0E25                     	;# 
  1430  0E28                     	;# 
  1431  0E29                     	;# 
  1432  0E2A                     	;# 
  1433  0E2B                     	;# 
  1434  0E90                     	;# 
  1435  0E91                     	;# 
  1436  0E92                     	;# 
  1437  0E94                     	;# 
  1438  0E95                     	;# 
  1439  0EA0                     	;# 
  1440  0EA1                     	;# 
  1441  0EA2                     	;# 
  1442  0EA3                     	;# 
  1443  0EA4                     	;# 
  1444  0EA5                     	;# 
  1445  0F0F                     	;# 
  1446  0F10                     	;# 
  1447  0F11                     	;# 
  1448  0F12                     	;# 
  1449  0F13                     	;# 
  1450  0F14                     	;# 
  1451  0F15                     	;# 
  1452  0F16                     	;# 
  1453  0F17                     	;# 
  1454  0F18                     	;# 
  1455  0F19                     	;# 
  1456  0F1A                     	;# 
  1457  0F1B                     	;# 
  1458  0F1C                     	;# 
  1459  0F1D                     	;# 
  1460  0F1E                     	;# 
  1461  0F1F                     	;# 
  1462  0F20                     	;# 
  1463  0F21                     	;# 
  1464  0F22                     	;# 
  1465  0F23                     	;# 
  1466  0F24                     	;# 
  1467  0F25                     	;# 
  1468  0F26                     	;# 
  1469  0F27                     	;# 
  1470  0F28                     	;# 
  1471  0F29                     	;# 
  1472  0F2A                     	;# 
  1473  0F2B                     	;# 
  1474  0F2C                     	;# 
  1475  0F2D                     	;# 
  1476  0F9E                     	;# 
  1477  0FE4                     	;# 
  1478  0FE5                     	;# 
  1479  0FE6                     	;# 
  1480  0FE7                     	;# 
  1481  0FE8                     	;# 
  1482  0FE9                     	;# 
  1483  0FEA                     	;# 
  1484  0FEB                     	;# 
  1485  0FED                     	;# 
  1486  0FEE                     	;# 
  1487  0FEF                     	;# 
  1488  0000                     	;# 
  1489  0001                     	;# 
  1490  0002                     	;# 
  1491  0003                     	;# 
  1492  0004                     	;# 
  1493  0005                     	;# 
  1494  0006                     	;# 
  1495  0007                     	;# 
  1496  0008                     	;# 
  1497  0009                     	;# 
  1498  000A                     	;# 
  1499  000B                     	;# 
  1500  000C                     	;# 
  1501  000E                     	;# 
  1502  0011                     	;# 
  1503  0012                     	;# 
  1504  0013                     	;# 
  1505  0015                     	;# 
  1506  0016                     	;# 
  1507  0016                     	;# 
  1508  0017                     	;# 
  1509  0018                     	;# 
  1510  0019                     	;# 
  1511  001A                     	;# 
  1512  001B                     	;# 
  1513  001C                     	;# 
  1514  008C                     	;# 
  1515  008E                     	;# 
  1516  0091                     	;# 
  1517  0092                     	;# 
  1518  0093                     	;# 
  1519  0095                     	;# 
  1520  0096                     	;# 
  1521  0097                     	;# 
  1522  0098                     	;# 
  1523  0099                     	;# 
  1524  009A                     	;# 
  1525  009B                     	;# 
  1526  009B                     	;# 
  1527  009C                     	;# 
  1528  009D                     	;# 
  1529  009E                     	;# 
  1530  009F                     	;# 
  1531  010C                     	;# 
  1532  010E                     	;# 
  1533  0111                     	;# 
  1534  0112                     	;# 
  1535  0113                     	;# 
  1536  0114                     	;# 
  1537  0115                     	;# 
  1538  0116                     	;# 
  1539  0117                     	;# 
  1540  0118                     	;# 
  1541  0119                     	;# 
  1542  011C                     	;# 
  1543  018C                     	;# 
  1544  018E                     	;# 
  1545  0191                     	;# 
  1546  0191                     	;# 
  1547  0192                     	;# 
  1548  0193                     	;# 
  1549  0193                     	;# 
  1550  0194                     	;# 
  1551  0195                     	;# 
  1552  0196                     	;# 
  1553  0197                     	;# 
  1554  0199                     	;# 
  1555  0199                     	;# 
  1556  0199                     	;# 
  1557  019A                     	;# 
  1558  019A                     	;# 
  1559  019A                     	;# 
  1560  019B                     	;# 
  1561  019B                     	;# 
  1562  019B                     	;# 
  1563  019B                     	;# 
  1564  019B                     	;# 
  1565  019C                     	;# 
  1566  019C                     	;# 
  1567  019C                     	;# 
  1568  019D                     	;# 
  1569  019D                     	;# 
  1570  019D                     	;# 
  1571  019E                     	;# 
  1572  019E                     	;# 
  1573  019E                     	;# 
  1574  019F                     	;# 
  1575  019F                     	;# 
  1576  019F                     	;# 
  1577  019F                     	;# 
  1578  019F                     	;# 
  1579  020C                     	;# 
  1580  020E                     	;# 
  1581  0211                     	;# 
  1582  0211                     	;# 
  1583  0212                     	;# 
  1584  0212                     	;# 
  1585  0213                     	;# 
  1586  0213                     	;# 
  1587  0214                     	;# 
  1588  0214                     	;# 
  1589  0215                     	;# 
  1590  0215                     	;# 
  1591  0215                     	;# 
  1592  0215                     	;# 
  1593  0216                     	;# 
  1594  0216                     	;# 
  1595  0217                     	;# 
  1596  0217                     	;# 
  1597  028C                     	;# 
  1598  028E                     	;# 
  1599  0291                     	;# 
  1600  0291                     	;# 
  1601  0292                     	;# 
  1602  0293                     	;# 
  1603  0293                     	;# 
  1604  0298                     	;# 
  1605  0298                     	;# 
  1606  0299                     	;# 
  1607  029A                     	;# 
  1608  029A                     	;# 
  1609  029E                     	;# 
  1610  030C                     	;# 
  1611  030E                     	;# 
  1612  038C                     	;# 
  1613  038E                     	;# 
  1614  0391                     	;# 
  1615  0392                     	;# 
  1616  0393                     	;# 
  1617  0397                     	;# 
  1618  0398                     	;# 
  1619  0399                     	;# 
  1620  0415                     	;# 
  1621  0416                     	;# 
  1622  0417                     	;# 
  1623  041C                     	;# 
  1624  041D                     	;# 
  1625  041E                     	;# 
  1626  0511                     	;# 
  1627  0515                     	;# 
  1628  0617                     	;# 
  1629  0618                     	;# 
  1630  0619                     	;# 
  1631  0619                     	;# 
  1632  061A                     	;# 
  1633  061B                     	;# 
  1634  061C                     	;# 
  1635  061C                     	;# 
  1636  0691                     	;# 
  1637  0692                     	;# 
  1638  0693                     	;# 
  1639  0694                     	;# 
  1640  0695                     	;# 
  1641  0696                     	;# 
  1642  0697                     	;# 
  1643  0698                     	;# 
  1644  0699                     	;# 
  1645  069A                     	;# 
  1646  069B                     	;# 
  1647  069C                     	;# 
  1648  069D                     	;# 
  1649  069E                     	;# 
  1650  069F                     	;# 
  1651  0E0F                     	;# 
  1652  0E10                     	;# 
  1653  0E11                     	;# 
  1654  0E12                     	;# 
  1655  0E13                     	;# 
  1656  0E14                     	;# 
  1657  0E15                     	;# 
  1658  0E17                     	;# 
  1659  0E20                     	;# 
  1660  0E21                     	;# 
  1661  0E22                     	;# 
  1662  0E24                     	;# 
  1663  0E25                     	;# 
  1664  0E28                     	;# 
  1665  0E29                     	;# 
  1666  0E2A                     	;# 
  1667  0E2B                     	;# 
  1668  0E90                     	;# 
  1669  0E91                     	;# 
  1670  0E92                     	;# 
  1671  0E94                     	;# 
  1672  0E95                     	;# 
  1673  0EA0                     	;# 
  1674  0EA1                     	;# 
  1675  0EA2                     	;# 
  1676  0EA3                     	;# 
  1677  0EA4                     	;# 
  1678  0EA5                     	;# 
  1679  0F0F                     	;# 
  1680  0F10                     	;# 
  1681  0F11                     	;# 
  1682  0F12                     	;# 
  1683  0F13                     	;# 
  1684  0F14                     	;# 
  1685  0F15                     	;# 
  1686  0F16                     	;# 
  1687  0F17                     	;# 
  1688  0F18                     	;# 
  1689  0F19                     	;# 
  1690  0F1A                     	;# 
  1691  0F1B                     	;# 
  1692  0F1C                     	;# 
  1693  0F1D                     	;# 
  1694  0F1E                     	;# 
  1695  0F1F                     	;# 
  1696  0F20                     	;# 
  1697  0F21                     	;# 
  1698  0F22                     	;# 
  1699  0F23                     	;# 
  1700  0F24                     	;# 
  1701  0F25                     	;# 
  1702  0F26                     	;# 
  1703  0F27                     	;# 
  1704  0F28                     	;# 
  1705  0F29                     	;# 
  1706  0F2A                     	;# 
  1707  0F2B                     	;# 
  1708  0F2C                     	;# 
  1709  0F2D                     	;# 
  1710  0F9E                     	;# 
  1711  0FE4                     	;# 
  1712  0FE5                     	;# 
  1713  0FE6                     	;# 
  1714  0FE7                     	;# 
  1715  0FE8                     	;# 
  1716  0FE9                     	;# 
  1717  0FEA                     	;# 
  1718  0FEB                     	;# 
  1719  0FED                     	;# 
  1720  0FEE                     	;# 
  1721  0FEF                     	;# 
  1722                           
  1723 ;; Function _EUSART_DefaultFramingErrorHandler is unused but had its address taken
  1724  0000                     
  1725 ;; Function _EUSART_DefaultOverrunErrorHandler is unused but had its address taken
  1726  0000                     
  1727 ;; Function _EUSART_DefaultErrorHandler is unused but had its address taken
  1728  0000                     
  1729                           	psect	stringtext1
  1730  02A1                     __pstringtext1:
  1731  02A1                     _key:
  1732  02A1  3400               	retlw	0
  1733  02A2  3400               	retlw	0
  1734  02A3  3400               	retlw	0
  1735  02A4  3400               	retlw	0
  1736  02A5  3400               	retlw	0
  1737  02A6  3400               	retlw	0
  1738  02A7  3400               	retlw	0
  1739  02A8  3430               	retlw	48
  1740  02A9  3431               	retlw	49
  1741  02AA  3434               	retlw	52
  1742  02AB  3437               	retlw	55
  1743  02AC  3446               	retlw	70
  1744  02AD  3400               	retlw	0
  1745  02AE  3430               	retlw	48
  1746  02AF  3432               	retlw	50
  1747  02B0  3435               	retlw	53
  1748  02B1  3438               	retlw	56
  1749  02B2  342F               	retlw	47
  1750  02B3  3400               	retlw	0
  1751  02B4  345A               	retlw	90
  1752  02B5  3433               	retlw	51
  1753  02B6  3436               	retlw	54
  1754  02B7  3439               	retlw	57
  1755  02B8  342A               	retlw	42
  1756  02B9  3400               	retlw	0
  1757  02BA  342E               	retlw	46
  1758  02BB  3445               	retlw	69
  1759  02BC  3442               	retlw	66
  1760  02BD  342B               	retlw	43
  1761  02BE  342D               	retlw	45
  1762  02BF                     __end_of_key:
  1763  000C                     _PORTAbits	set	12
  1764  000E                     _PORTCbits	set	14
  1765  0011                     _PIR1bits	set	17
  1766  0015                     _TMR0	set	21
  1767  000B                     _INTCONbits	set	11
  1768  0095                     _OPTION_REG	set	149
  1769  0097                     _WDTCON	set	151
  1770  0098                     _OSCTUNE	set	152
  1771  009A                     _OSCSTAT	set	154
  1772  0099                     _OSCCON	set	153
  1773  0095                     _OPTION_REGbits	set	149
  1774  008E                     _TRISC	set	142
  1775  008C                     _TRISA	set	140
  1776  04D6                     _PLLR	set	1238
  1777  010C                     _LATAbits	set	268
  1778  010E                     _LATCbits	set	270
  1779  0116                     _BORCON	set	278
  1780  010E                     _LATC	set	270
  1781  010C                     _LATA	set	268
  1782  019A                     _TX1REG	set	410
  1783  0199                     _RC1REG	set	409
  1784  019D                     _RC1STAbits	set	413
  1785  019E                     _TX1STAbits	set	414
  1786  019C                     _SP1BRGH	set	412
  1787  019B                     _SP1BRGL	set	411
  1788  019E                     _TX1STA	set	414
  1789  019D                     _RC1STA	set	413
  1790  019F                     _BAUD1CON	set	415
  1791  018C                     _ANSELA	set	396
  1792  018E                     _ANSELC	set	398
  1793  020E                     _WPUC	set	526
  1794  020C                     _WPUA	set	524
  1795  028E                     _ODCONC	set	654
  1796  028C                     _ODCONA	set	652
  1797  030E                     _SLRCONC	set	782
  1798  030C                     _SLRCONA	set	780
  1799  038E                     _INLVLC	set	910
  1800  038C                     _INLVLA	set	908
  1801  0E24                     _RXPPS	set	3620
  1802  0EA4                     _RC4PPS	set	3748
  1803  02BF                     STR_4:
  1804  02BF  344C               	retlw	76	;'L'
  1805  02C0  344B               	retlw	75	;'K'
  1806  02C1  3430               	retlw	48	;'0'
  1807  02C2  343B               	retlw	59	;';'
  1808  02C3  3400               	retlw	0
  1809                           
  1810                           	psect	stringtext2
  1811  03F6                     __pstringtext2:
  1812  03F6                     STR_7:
  1813  03F6  3446               	retlw	70	;'F'
  1814  03F7  3453               	retlw	83	;'S'
  1815  03F8  3430               	retlw	48	;'0'
  1816  03F9  343B               	retlw	59	;';'
  1817  03FA  3400               	retlw	0
  1818                           
  1819                           	psect	stringtext3
  1820  03FB                     __pstringtext3:
  1821  03FB                     STR_3:
  1822  03FB  344C               	retlw	76	;'L'
  1823  03FC  344B               	retlw	75	;'K'
  1824  03FD  3431               	retlw	49	;'1'
  1825  03FE  343B               	retlw	59	;';'
  1826  03FF  3400               	retlw	0
  1827                           
  1828                           	psect	stringtext4
  1829  0400                     __pstringtext4:
  1830  0400                     STR_6:
  1831  0400  3446               	retlw	70	;'F'
  1832  0401  3453               	retlw	83	;'S'
  1833  0402  3431               	retlw	49	;'1'
  1834  0403  343B               	retlw	59	;';'
  1835  0404  3400               	retlw	0
  1836                           
  1837                           	psect	stringtext5
  1838  0405                     __pstringtext5:
  1839  0405                     STR_5:
  1840  0405  3456               	retlw	86	;'V'
  1841  0406  344D               	retlw	77	;'M'
  1842  0407  343B               	retlw	59	;';'
  1843  0408  3400               	retlw	0
  1844                           
  1845                           	psect	stringtext6
  1846  0409                     __pstringtext6:
  1847  0409                     STR_9:
  1848  0409  3444               	retlw	68	;'D'
  1849  040A  344E               	retlw	78	;'N'
  1850  040B  343B               	retlw	59	;';'
  1851  040C  3400               	retlw	0
  1852                           
  1853                           	psect	stringtext7
  1854  040D                     __pstringtext7:
  1855  040D                     STR_8:
  1856  040D  3455               	retlw	85	;'U'
  1857  040E  3450               	retlw	80	;'P'
  1858  040F  343B               	retlw	59	;';'
  1859  0410  3400               	retlw	0
  1860                           
  1861                           	psect	stringtext8
  1862  0415                     __pstringtext8:
  1863  0415                     STR_1:
  1864  0415  3446               	retlw	70	;'F'
  1865  0416  3441               	retlw	65	;'A'
  1866  0417  3400               	retlw	0
  1867                           
  1868                           	psect	stringtext9
  1869  0000                     __pstringtext9:
  1870  02C2                     
  1871                           	psect	cinit
  1872  0015                     start_initialization:	
  1873                           ; #config settings
  1874                           
  1875  0015                     __initialization:
  1876                           
  1877                           ; Clear objects allocated to BANK0
  1878  0015  3020               	movlw	low __pbssBANK0
  1879  0016  0084               	movwf	4
  1880  0017  3000               	movlw	high __pbssBANK0
  1881  0018  0085               	movwf	5
  1882  0019  3025               	movlw	37
  1883  001A  3183  23D8  3180   	fcall	clear_ram0
  1884  001D                     end_of_initialization:	
  1885                           ;End of C runtime variable initialization code
  1886                           
  1887  001D                     __end_of__initialization:
  1888  001D  107E               	bcf	int$flags,0	;clear compiler interrupt flag (level 1)
  1889  001E  0020               	movlb	0
  1890  001F  3183  2B27         	ljmp	_main	;jump to C main() function
  1891                           
  1892                           	psect	bssBANK0
  1893  0020                     __pbssBANK0:
  1894  0020                     _work_buf:
  1895  0020                     	ds	10
  1896  002A                     _EUSART_ErrorHandler:
  1897  002A                     	ds	2
  1898  002C                     _EUSART_OverrunErrorHandler:
  1899  002C                     	ds	2
  1900  002E                     _EUSART_FramingErrorHandler:
  1901  002E                     	ds	2
  1902  0030                     _TMR0_InterruptHandler:
  1903  0030                     	ds	2
  1904  0032                     timer_int_callback@repeat:
  1905  0032                     	ds	1
  1906  0033                     _cmd_cur_pos:
  1907  0033                     	ds	1
  1908  0034                     _work_cur_pos:
  1909  0034                     	ds	1
  1910  0035                     _fast_mode:
  1911  0035                     	ds	1
  1912  0036                     _lock_mode:
  1913  0036                     	ds	1
  1914  0037                     _key_code:
  1915  0037                     	ds	1
  1916  0038                     _last_code:
  1917  0038                     	ds	1
  1918  0039                     _eusartRxLastError:
  1919  0039                     	ds	1
  1920  003A                     _timer0ReloadVal:
  1921  003A                     	ds	1
  1922  003B                     _cmd_buf:
  1923  003B                     	ds	10
  1924                           
  1925                           	psect	clrtext
  1926  03D8                     clear_ram0:	
  1927                           ;	Called with FSR0 containing the base address, and
  1928                           ;	WREG with the size to clear
  1929                           
  1930  03D8  0064               	clrwdt	;clear the watchdog before getting into this loop
  1931  03D9                     clrloop0:
  1932  03D9  0180               	clrf	0	;clear RAM location pointed to by FSR
  1933  03DA  3101               	addfsr 0,1
  1934  03DB  0B89               	decfsz	9,f	;Have we reached the end of clearing yet?
  1935  03DC  2BD9               	goto	clrloop0	;have we reached the end yet?
  1936  03DD  3400               	retlw	0	;all done for this memory range, return
  1937                           
  1938                           	psect	cstackCOMMON
  1939  0070                     __pcstackCOMMON:
  1940  0070                     ?_TMR0_ISR:
  1941  0070                     ?_OSCILLATOR_Initialize:	
  1942                           ; 1 bytes @ 0x0
  1943                           
  1944  0070                     ?_WDT_Initialize:	
  1945                           ; 1 bytes @ 0x0
  1946                           
  1947  0070                     ?_TMR0_Initialize:	
  1948                           ; 1 bytes @ 0x0
  1949                           
  1950  0070                     ?_EUSART_Initialize:	
  1951                           ; 1 bytes @ 0x0
  1952                           
  1953  0070                     ?_TMR0_DefaultInterruptHandler:	
  1954                           ; 1 bytes @ 0x0
  1955                           
  1956  0070                     ??_TMR0_DefaultInterruptHandler:	
  1957                           ; 1 bytes @ 0x0
  1958                           
  1959  0070                     ?_PIN_MANAGER_Initialize:	
  1960                           ; 1 bytes @ 0x0
  1961                           
  1962  0070                     ?_INTERRUPT_InterruptManager:	
  1963                           ; 1 bytes @ 0x0
  1964                           
  1965  0070                     ?_SYSTEM_Initialize:	
  1966                           ; 1 bytes @ 0x0
  1967                           
  1968  0070                     ?_EUSART_Write:	
  1969                           ; 1 bytes @ 0x0
  1970                           
  1971  0070                     ?_clear_buf:	
  1972                           ; 1 bytes @ 0x0
  1973                           
  1974  0070                     ?_add_work_buf:	
  1975                           ; 1 bytes @ 0x0
  1976                           
  1977  0070                     ?_add_cmd_buf:	
  1978                           ; 1 bytes @ 0x0
  1979                           
  1980  0070                     ?_bs_work_buf:	
  1981                           ; 1 bytes @ 0x0
  1982                           
  1983  0070                     ?_parse_work_buf:	
  1984                           ; 1 bytes @ 0x0
  1985                           
  1986  0070                     ?_scan_row:	
  1987                           ; 1 bytes @ 0x0
  1988                           
  1989  0070                     ?_timer_int_callback:	
  1990                           ; 1 bytes @ 0x0
  1991                           
  1992  0070                     ?_send_freq:	
  1993                           ; 1 bytes @ 0x0
  1994                           
  1995  0070                     ?_decode_key:	
  1996                           ; 1 bytes @ 0x0
  1997                           
  1998  0070                     ?_setup:	
  1999                           ; 1 bytes @ 0x0
  2000                           
  2001  0070                     ?_main:	
  2002                           ; 1 bytes @ 0x0
  2003                           
  2004  0070                     ?___wmul:	
  2005                           ; 1 bytes @ 0x0
  2006                           
  2007  0070                     ___wmul@multiplier:	
  2008                           ; 2 bytes @ 0x0
  2009                           
  2010                           
  2011                           ; 2 bytes @ 0x0
  2012  0070                     	ds	2
  2013  0072                     ___wmul@multiplicand:
  2014                           
  2015                           ; 2 bytes @ 0x2
  2016  0072                     	ds	2
  2017  0074                     ??___wmul:
  2018  0074                     ___wmul@product:	
  2019                           ; 1 bytes @ 0x4
  2020                           
  2021                           
  2022                           ; 2 bytes @ 0x4
  2023  0074                     	ds	2
  2024  0076                     ??_scan_row:
  2025                           
  2026                           ; 1 bytes @ 0x6
  2027  0076                     	ds	6
  2028  007C                     scan_row@row:
  2029                           
  2030                           ; 1 bytes @ 0xC
  2031  007C                     	ds	1
  2032  007D                     scan_row@col:
  2033                           
  2034                           ; 1 bytes @ 0xD
  2035  007D                     	ds	1
  2036  007E                     ??_TMR0_ISR:
  2037  007E                     ??_INTERRUPT_InterruptManager:	
  2038                           ; 1 bytes @ 0xE
  2039                           
  2040                           
  2041                           	psect	cstackBANK0
  2042  0045                     __pcstackBANK0:	
  2043                           ; 1 bytes @ 0xE
  2044                           
  2045  0045                     ??_timer_int_callback:
  2046                           
  2047                           ; 1 bytes @ 0x0
  2048  0045                     	ds	1
  2049  0046                     timer_int_callback@i:
  2050                           
  2051                           ; 1 bytes @ 0x1
  2052  0046                     	ds	1
  2053  0047                     timer_int_callback@code:
  2054                           
  2055                           ; 1 bytes @ 0x2
  2056  0047                     	ds	1
  2057  0048                     ??_OSCILLATOR_Initialize:
  2058  0048                     ??_WDT_Initialize:	
  2059                           ; 1 bytes @ 0x3
  2060                           
  2061  0048                     ?_TMR0_SetInterruptHandler:	
  2062                           ; 1 bytes @ 0x3
  2063                           
  2064  0048                     ?_EUSART_SetFramingErrorHandler:	
  2065                           ; 1 bytes @ 0x3
  2066                           
  2067  0048                     ?_EUSART_SetOverrunErrorHandler:	
  2068                           ; 1 bytes @ 0x3
  2069                           
  2070  0048                     ?_EUSART_SetErrorHandler:	
  2071                           ; 1 bytes @ 0x3
  2072                           
  2073  0048                     ??_PIN_MANAGER_Initialize:	
  2074                           ; 1 bytes @ 0x3
  2075                           
  2076  0048                     ??_EUSART_Write:	
  2077                           ; 1 bytes @ 0x3
  2078                           
  2079  0048                     ??_clear_buf:	
  2080                           ; 1 bytes @ 0x3
  2081                           
  2082  0048                     ??_add_work_buf:	
  2083                           ; 1 bytes @ 0x3
  2084                           
  2085  0048                     ??_add_cmd_buf:	
  2086                           ; 1 bytes @ 0x3
  2087                           
  2088  0048                     ??_bs_work_buf:	
  2089                           ; 1 bytes @ 0x3
  2090                           
  2091  0048                     EUSART_Write@txData:	
  2092                           ; 1 bytes @ 0x3
  2093                           
  2094  0048                     TMR0_SetInterruptHandler@InterruptHandler:	
  2095                           ; 1 bytes @ 0x3
  2096                           
  2097  0048                     EUSART_SetFramingErrorHandler@interruptHandler:	
  2098                           ; 2 bytes @ 0x3
  2099                           
  2100  0048                     EUSART_SetOverrunErrorHandler@interruptHandler:	
  2101                           ; 2 bytes @ 0x3
  2102                           
  2103  0048                     EUSART_SetErrorHandler@interruptHandler:	
  2104                           ; 2 bytes @ 0x3
  2105                           
  2106                           
  2107                           ; 2 bytes @ 0x3
  2108  0048                     	ds	1
  2109  0049                     ?_send_cmd:
  2110  0049                     add_work_buf@key:	
  2111                           ; 1 bytes @ 0x4
  2112                           
  2113  0049                     add_cmd_buf@key:	
  2114                           ; 1 bytes @ 0x4
  2115                           
  2116  0049                     clear_buf@i:	
  2117                           ; 1 bytes @ 0x4
  2118                           
  2119  0049                     send_cmd@cmd:	
  2120                           ; 2 bytes @ 0x4
  2121                           
  2122                           
  2123                           ; 2 bytes @ 0x4
  2124  0049                     	ds	1
  2125  004A                     ??_TMR0_Initialize:
  2126  004A                     ??_EUSART_Initialize:	
  2127                           ; 1 bytes @ 0x5
  2128                           
  2129  004A                     ??_TMR0_SetInterruptHandler:	
  2130                           ; 1 bytes @ 0x5
  2131                           
  2132  004A                     ??_EUSART_SetFramingErrorHandler:	
  2133                           ; 1 bytes @ 0x5
  2134                           
  2135  004A                     ??_EUSART_SetOverrunErrorHandler:	
  2136                           ; 1 bytes @ 0x5
  2137                           
  2138  004A                     ??_EUSART_SetErrorHandler:	
  2139                           ; 1 bytes @ 0x5
  2140                           
  2141  004A                     ??_parse_work_buf:	
  2142                           ; 1 bytes @ 0x5
  2143                           
  2144                           
  2145                           ; 1 bytes @ 0x5
  2146  004A                     	ds	1
  2147  004B                     ??_SYSTEM_Initialize:
  2148  004B                     ??_send_cmd:	
  2149                           ; 1 bytes @ 0x6
  2150                           
  2151  004B                     ??_setup:	
  2152                           ; 1 bytes @ 0x6
  2153                           
  2154  004B                     parse_work_buf@i:	
  2155                           ; 1 bytes @ 0x6
  2156                           
  2157                           
  2158                           ; 2 bytes @ 0x6
  2159  004B                     	ds	1
  2160  004C                     send_cmd@p:
  2161                           
  2162                           ; 2 bytes @ 0x7
  2163  004C                     	ds	1
  2164  004D                     parse_work_buf@j:
  2165                           
  2166                           ; 2 bytes @ 0x8
  2167  004D                     	ds	2
  2168  004F                     ??_send_freq:
  2169  004F                     ??_decode_key:	
  2170                           ; 1 bytes @ 0xA
  2171                           
  2172                           
  2173                           ; 1 bytes @ 0xA
  2174  004F                     	ds	2
  2175  0051                     decode_key@key:
  2176                           
  2177                           ; 1 bytes @ 0xC
  2178  0051                     	ds	1
  2179  0052                     ??_main:
  2180                           
  2181                           	psect	maintext
  2182  0327                     __pmaintext:	
  2183                           ; 1 bytes @ 0xD
  2184 ;;
  2185 ;;Main: autosize = 0, tempsize = 0, incstack = 0, save=0
  2186 ;;
  2187 ;; *************** function _main *****************
  2188 ;; Defined at:
  2189 ;;		line 299 in file "main.c"
  2190 ;; Parameters:    Size  Location     Type
  2191 ;;		None
  2192 ;; Auto vars:     Size  Location     Type
  2193 ;;		None
  2194 ;; Return value:  Size  Location     Type
  2195 ;;                  1    wreg      void 
  2196 ;; Registers used:
  2197 ;;		wreg, fsr0l, fsr0h, fsr1l, fsr1h, status,2, status,0, pclath, cstack
  2198 ;; Tracked objects:
  2199 ;;		On entry : B1F/0
  2200 ;;		On exit  : 0/0
  2201 ;;		Unchanged: 0/0
  2202 ;; Data sizes:     COMMON   BANK0   BANK1   BANK2   BANK3   BANK4   BANK5   BANK6   BANK7   BANK8   BANK9  BANK10  BANK1
      +1  BANK12
  2203 ;;      Params:         0       0       0       0       0       0       0       0       0       0       0       0       
      +0       0
  2204 ;;      Locals:         0       0       0       0       0       0       0       0       0       0       0       0       
      +0       0
  2205 ;;      Temps:          0       0       0       0       0       0       0       0       0       0       0       0       
      +0       0
  2206 ;;      Totals:         0       0       0       0       0       0       0       0       0       0       0       0       
      +0       0
  2207 ;;Total ram usage:        0 bytes
  2208 ;; Hardware stack levels required when called: 9
  2209 ;; This function calls:
  2210 ;;		_SYSTEM_Initialize
  2211 ;;		_decode_key
  2212 ;;		_setup
  2213 ;; This function is called by:
  2214 ;;		Startup code after reset
  2215 ;; This function uses a non-reentrant model
  2216 ;;
  2217                           
  2218                           
  2219                           ;psect for function _main
  2220  0327                     _main:
  2221  0327                     l1770:	
  2222                           ;incstack = 0
  2223                           ; Regs used in _main: [wreg-fsr1h+status,2+status,0+pclath+cstack]
  2224                           
  2225                           
  2226                           ;main.c: 302:     SYSTEM_Initialize();
  2227  0327  3183  23A1  3183   	fcall	_SYSTEM_Initialize
  2228  032A                     l1772:
  2229                           
  2230                           ;main.c: 308:     (INTCONbits.GIE = 1);
  2231  032A  178B               	bsf	11,7	;volatile
  2232  032B                     l1774:
  2233                           
  2234                           ;main.c: 311:     (INTCONbits.PEIE = 1);
  2235  032B  170B               	bsf	11,6	;volatile
  2236  032C                     l1776:
  2237                           
  2238                           ;main.c: 319:     setup();
  2239  032C  3183  237E  3183   	fcall	_setup
  2240  032F                     l1778:
  2241                           
  2242                           ;main.c: 321:     {;main.c: 323:   if (key_code != 0) {
  2243  032F  0020               	movlb	0	; select bank0
  2244  0330  0837               	movf	_key_code,w	;volatile
  2245  0331  1903               	btfsc	3,2
  2246  0332  2B34               	goto	u971
  2247  0333  2B35               	goto	u970
  2248  0334                     u971:
  2249  0334  2B2F               	goto	l1778
  2250  0335                     u970:
  2251  0335                     l1780:
  2252                           
  2253                           ;main.c: 324:    decode_key(key_code);
  2254  0335  0837               	movf	_key_code,w	;volatile
  2255  0336  3181  215C  3183   	fcall	_decode_key
  2256  0339                     l1782:
  2257                           
  2258                           ;main.c: 326:    key_code = 0;
  2259  0339  0020               	movlb	0	; select bank0
  2260  033A  01B7               	clrf	_key_code	;volatile
  2261  033B  2B2F               	goto	l1778
  2262  033C  3180  2813         	ljmp	start
  2263  033E                     __end_of_main:
  2264                           
  2265                           	psect	text1
  2266  037E                     __ptext1:	
  2267 ;; *************** function _setup *****************
  2268 ;; Defined at:
  2269 ;;		line 283 in file "main.c"
  2270 ;; Parameters:    Size  Location     Type
  2271 ;;		None
  2272 ;; Auto vars:     Size  Location     Type
  2273 ;;		None
  2274 ;; Return value:  Size  Location     Type
  2275 ;;                  1    wreg      void 
  2276 ;; Registers used:
  2277 ;;		wreg, fsr1l, fsr1h, status,2, status,0, pclath, cstack
  2278 ;; Tracked objects:
  2279 ;;		On entry : 0/0
  2280 ;;		On exit  : 0/0
  2281 ;;		Unchanged: 0/0
  2282 ;; Data sizes:     COMMON   BANK0   BANK1   BANK2   BANK3   BANK4   BANK5   BANK6   BANK7   BANK8   BANK9  BANK10  BANK1
      +1  BANK12
  2283 ;;      Params:         0       0       0       0       0       0       0       0       0       0       0       0       
      +0       0
  2284 ;;      Locals:         0       0       0       0       0       0       0       0       0       0       0       0       
      +0       0
  2285 ;;      Temps:          0       0       0       0       0       0       0       0       0       0       0       0       
      +0       0
  2286 ;;      Totals:         0       0       0       0       0       0       0       0       0       0       0       0       
      +0       0
  2287 ;;Total ram usage:        0 bytes
  2288 ;; Hardware stack levels used: 1
  2289 ;; Hardware stack levels required when called: 6
  2290 ;; This function calls:
  2291 ;;		_TMR0_SetInterruptHandler
  2292 ;;		_clear_buf
  2293 ;; This function is called by:
  2294 ;;		_main
  2295 ;; This function uses a non-reentrant model
  2296 ;;
  2297                           
  2298                           
  2299                           ;psect for function _setup
  2300  037E                     _setup:
  2301  037E                     l1740:	
  2302                           ;incstack = 0
  2303                           ; Regs used in _setup: [wreg+fsr1l+fsr1h+status,2+status,0+pclath+cstack]
  2304                           
  2305                           
  2306                           ;main.c: 285:     TMR0_SetInterruptHandler(timer_int_callback);
  2307  037E  30E7               	movlw	low _timer_int_callback
  2308  037F  0020               	movlb	0	; select bank0
  2309  0380  00C8               	movwf	TMR0_SetInterruptHandler@InterruptHandler
  2310  0381  3001               	movlw	high _timer_int_callback
  2311  0382  00C9               	movwf	TMR0_SetInterruptHandler@InterruptHandler+1
  2312  0383  3183  23DE  3183   	fcall	_TMR0_SetInterruptHandler
  2313  0386                     l1742:
  2314  0386  0022               	movlb	2	; select bank2
  2315  0387  148E               	bsf	14,1	;volatile
  2316  0388                     l1744:
  2317  0388  150E               	bsf	14,2	;volatile
  2318  0389                     l1746:
  2319  0389  158E               	bsf	14,3	;volatile
  2320  038A                     l1748:
  2321  038A  160C               	bsf	12,4	;volatile
  2322  038B                     l1750:
  2323  038B  128C               	bcf	12,5	;volatile
  2324  038C                     l1752:
  2325                           
  2326                           ;main.c: 291:  clear_buf();
  2327  038C  3182  2226  3183   	fcall	_clear_buf
  2328  038F                     l413:
  2329  038F  0008               	return
  2330  0390                     __end_of_setup:
  2331                           
  2332                           	psect	text2
  2333  015C                     __ptext2:	
  2334 ;; *************** function _decode_key *****************
  2335 ;; Defined at:
  2336 ;;		line 225 in file "main.c"
  2337 ;; Parameters:    Size  Location     Type
  2338 ;;  key             1    wreg     unsigned char 
  2339 ;; Auto vars:     Size  Location     Type
  2340 ;;  key             1   12[BANK0 ] unsigned char 
  2341 ;;  buf             2    0        unsigned char [2]
  2342 ;; Return value:  Size  Location     Type
  2343 ;;                  1    wreg      unsigned char 
  2344 ;; Registers used:
  2345 ;;		wreg, fsr0l, fsr0h, fsr1l, fsr1h, status,2, status,0, pclath, cstack
  2346 ;; Tracked objects:
  2347 ;;		On entry : 0/0
  2348 ;;		On exit  : 0/0
  2349 ;;		Unchanged: 0/0
  2350 ;; Data sizes:     COMMON   BANK0   BANK1   BANK2   BANK3   BANK4   BANK5   BANK6   BANK7   BANK8   BANK9  BANK10  BANK1
      +1  BANK12
  2351 ;;      Params:         0       0       0       0       0       0       0       0       0       0       0       0       
      +0       0
  2352 ;;      Locals:         0       1       0       0       0       0       0       0       0       0       0       0       
      +0       0
  2353 ;;      Temps:          0       2       0       0       0       0       0       0       0       0       0       0       
      +0       0
  2354 ;;      Totals:         0       3       0       0       0       0       0       0       0       0       0       0       
      +0       0
  2355 ;;Total ram usage:        3 bytes
  2356 ;; Hardware stack levels used: 1
  2357 ;; Hardware stack levels required when called: 8
  2358 ;; This function calls:
  2359 ;;		_add_work_buf
  2360 ;;		_bs_work_buf
  2361 ;;		_clear_buf
  2362 ;;		_send_cmd
  2363 ;;		_send_freq
  2364 ;; This function is called by:
  2365 ;;		_main
  2366 ;; This function uses a non-reentrant model
  2367 ;;
  2368                           
  2369                           
  2370                           ;psect for function _decode_key
  2371  015C                     _decode_key:
  2372                           
  2373                           ;incstack = 0
  2374                           ; Regs used in _decode_key: [wreg-fsr1h+status,2+status,0+pclath+cstack]
  2375                           ;decode_key@key stored from wreg
  2376  015C  0020               	movlb	0	; select bank0
  2377  015D  00D1               	movwf	decode_key@key
  2378  015E                     l1682:
  2379                           
  2380                           ;main.c: 225: uint8_t decode_key(char key);main.c: 226: {;main.c: 227:     char buf[2];;
      +                          main.c: 228:  switch(key) {
  2381  015E  29C4               	goto	l1732
  2382  015F                     l1684:
  2383                           
  2384                           ;main.c: 230:    if (lock_mode == 0) {
  2385  015F  0836               	movf	_lock_mode,w
  2386  0160  1D03               	btfss	3,2
  2387  0161  2963               	goto	u931
  2388  0162  2964               	goto	u930
  2389  0163                     u931:
  2390  0163  296E               	goto	l1690
  2391  0164                     u930:
  2392  0164                     l1686:
  2393                           
  2394                           ;main.c: 231:     lock_mode = 1;
  2395  0164  01B6               	clrf	_lock_mode
  2396  0165  0AB6               	incf	_lock_mode,f
  2397  0166                     l1688:
  2398                           
  2399                           ;main.c: 232:     send_cmd("LK1;");
  2400  0166  30FB               	movlw	low (STR_3| (0+32768))
  2401  0167  00C9               	movwf	send_cmd@cmd
  2402  0168  3083               	movlw	high (STR_3| (0+32768))
  2403  0169  00CA               	movwf	send_cmd@cmd+1
  2404  016A  3182  22E6  3181   	fcall	_send_cmd
  2405                           
  2406                           ;main.c: 233:    } else {
  2407  016D  2976               	goto	l1694
  2408  016E                     l1690:
  2409                           
  2410                           ;main.c: 234:     lock_mode = 0;
  2411  016E  01B6               	clrf	_lock_mode
  2412  016F                     l1692:
  2413                           
  2414                           ;main.c: 235:     send_cmd("LK0;");
  2415  016F  30BF               	movlw	low (STR_4| (0+32768))
  2416  0170  00C9               	movwf	send_cmd@cmd
  2417  0171  3082               	movlw	high (STR_4| (0+32768))
  2418  0172  00CA               	movwf	send_cmd@cmd+1
  2419  0173  3182  22E6  3181   	fcall	_send_cmd
  2420  0176                     l1694:
  2421                           
  2422                           ;main.c: 237:    clear_buf();
  2423  0176  3182  2226  3181   	fcall	_clear_buf
  2424                           
  2425                           ;main.c: 238:    break;
  2426  0179  29E6               	goto	l400
  2427  017A                     l1696:
  2428                           
  2429                           ;main.c: 240:    send_cmd("VM;");
  2430  017A  3005               	movlw	low (STR_5| (0+32768))
  2431  017B  00C9               	movwf	send_cmd@cmd
  2432  017C  3084               	movlw	high (STR_5| (0+32768))
  2433  017D  00CA               	movwf	send_cmd@cmd+1
  2434  017E  3182  22E6  3181   	fcall	_send_cmd
  2435  0181  2976               	goto	l1694
  2436  0182                     l1700:
  2437                           
  2438                           ;main.c: 244:    if (fast_mode == 0) {
  2439  0182  0835               	movf	_fast_mode,w
  2440  0183  1D03               	btfss	3,2
  2441  0184  2986               	goto	u941
  2442  0185  2987               	goto	u940
  2443  0186                     u941:
  2444  0186  2991               	goto	l1706
  2445  0187                     u940:
  2446  0187                     l1702:
  2447                           
  2448                           ;main.c: 245:     fast_mode = 1;
  2449  0187  01B5               	clrf	_fast_mode
  2450  0188  0AB5               	incf	_fast_mode,f
  2451  0189                     l1704:
  2452                           
  2453                           ;main.c: 246:     send_cmd("FS1;");
  2454  0189  3000               	movlw	low (STR_6| (0+32768))
  2455  018A  00C9               	movwf	send_cmd@cmd
  2456  018B  3084               	movlw	high (STR_6| (0+32768))
  2457  018C  00CA               	movwf	send_cmd@cmd+1
  2458  018D  3182  22E6  3181   	fcall	_send_cmd
  2459                           
  2460                           ;main.c: 247:    } else {
  2461  0190  2976               	goto	l1694
  2462  0191                     l1706:
  2463                           
  2464                           ;main.c: 248:     fast_mode = 0;
  2465  0191  01B5               	clrf	_fast_mode
  2466  0192                     l1708:
  2467                           
  2468                           ;main.c: 249:     send_cmd("FS0;");
  2469  0192  30F6               	movlw	low (STR_7| (0+32768))
  2470  0193  00C9               	movwf	send_cmd@cmd
  2471  0194  3083               	movlw	high (STR_7| (0+32768))
  2472  0195  00CA               	movwf	send_cmd@cmd+1
  2473  0196  3182  22E6  3181   	fcall	_send_cmd
  2474  0199  2976               	goto	l1694
  2475  019A                     l1712:
  2476                           
  2477                           ;main.c: 254:    send_cmd("UP;");
  2478  019A  300D               	movlw	low (STR_8| (0+32768))
  2479  019B  00C9               	movwf	send_cmd@cmd
  2480  019C  3084               	movlw	high (STR_8| (0+32768))
  2481  019D  00CA               	movwf	send_cmd@cmd+1
  2482  019E  3182  22E6  3181   	fcall	_send_cmd
  2483  01A1  2976               	goto	l1694
  2484  01A2                     l1716:
  2485                           
  2486                           ;main.c: 258:    send_cmd("DN;");
  2487  01A2  3009               	movlw	low (STR_9| (0+32768))
  2488  01A3  00C9               	movwf	send_cmd@cmd
  2489  01A4  3084               	movlw	high (STR_9| (0+32768))
  2490  01A5  00CA               	movwf	send_cmd@cmd+1
  2491  01A6  3182  22E6  3181   	fcall	_send_cmd
  2492  01A9  2976               	goto	l1694
  2493  01AA                     l1720:
  2494                           
  2495                           ;main.c: 262:    bs_work_buf();
  2496  01AA  3183  2390  3181   	fcall	_bs_work_buf
  2497                           
  2498                           ;main.c: 263:    break;
  2499  01AD  29E6               	goto	l400
  2500  01AE                     l1722:
  2501                           
  2502                           ;main.c: 265:    send_freq();
  2503  01AE  3182  22C4  3181   	fcall	_send_freq
  2504  01B1  2976               	goto	l1694
  2505  01B2                     l1726:
  2506                           
  2507                           ;main.c: 269:             add_work_buf('0');
  2508  01B2  3030               	movlw	48
  2509  01B3  3183  2369  3181   	fcall	_add_work_buf
  2510                           
  2511                           ;main.c: 270:             add_work_buf('0');
  2512  01B6  3030               	movlw	48
  2513  01B7  3183  2369  3181   	fcall	_add_work_buf
  2514                           
  2515                           ;main.c: 271:             add_work_buf('0');
  2516  01BA  3030               	movlw	48
  2517  01BB  3183  2369  3181   	fcall	_add_work_buf
  2518                           
  2519                           ;main.c: 272:             break;
  2520  01BE  29E6               	goto	l400
  2521  01BF                     l1728:
  2522                           
  2523                           ;main.c: 274:    add_work_buf(key);
  2524  01BF  0851               	movf	decode_key@key,w
  2525  01C0  3183  2369  3181   	fcall	_add_work_buf
  2526                           
  2527                           ;main.c: 275:    break;
  2528  01C3  29E6               	goto	l400
  2529  01C4                     l1732:
  2530  01C4  0851               	movf	decode_key@key,w
  2531  01C5  00CF               	movwf	??_decode_key
  2532  01C6  01D0               	clrf	??_decode_key+1
  2533                           
  2534                           ; Switch on 2 bytes has been partitioned into a top level switch of size 1, and 1 sub-sw
      +                          itches
  2535                           ; Switch size 1, requested type "simple"
  2536                           ; Number of cases is 1, Range of values is 0 to 0
  2537                           ; switch strategies available:
  2538                           ; Name         Instructions Cycles
  2539                           ; simple_byte            4     3 (average)
  2540                           ; direct_byte            8     6 (fixed)
  2541                           ; jumptable            260     6 (fixed)
  2542                           ;	Chosen strategy is simple_byte
  2543  01C7  0850               	movf	??_decode_key+1,w
  2544  01C8  3A00               	xorlw	0	; case 0
  2545  01C9  1903               	skipnz
  2546  01CA  29CC               	goto	l1814
  2547  01CB  29BF               	goto	l1728
  2548  01CC                     l1814:
  2549                           
  2550                           ; Switch size 1, requested type "simple"
  2551                           ; Number of cases is 8, Range of values is 42 to 90
  2552                           ; switch strategies available:
  2553                           ; Name         Instructions Cycles
  2554                           ; simple_byte           25    13 (average)
  2555                           ; direct_byte          107     9 (fixed)
  2556                           ; jumptable            263     9 (fixed)
  2557                           ;	Chosen strategy is simple_byte
  2558  01CC  084F               	movf	??_decode_key,w
  2559  01CD  3A2A               	xorlw	42	; case 42
  2560  01CE  1903               	skipnz
  2561  01CF  2982               	goto	l1700
  2562  01D0  3A01               	xorlw	1	; case 43
  2563  01D1  1903               	skipnz
  2564  01D2  299A               	goto	l1712
  2565  01D3  3A06               	xorlw	6	; case 45
  2566  01D4  1903               	skipnz
  2567  01D5  29A2               	goto	l1716
  2568  01D6  3A02               	xorlw	2	; case 47
  2569  01D7  1903               	skipnz
  2570  01D8  297A               	goto	l1696
  2571  01D9  3A6D               	xorlw	109	; case 66
  2572  01DA  1903               	skipnz
  2573  01DB  29AA               	goto	l1720
  2574  01DC  3A07               	xorlw	7	; case 69
  2575  01DD  1903               	skipnz
  2576  01DE  29AE               	goto	l1722
  2577  01DF  3A03               	xorlw	3	; case 70
  2578  01E0  1903               	skipnz
  2579  01E1  295F               	goto	l1684
  2580  01E2  3A1C               	xorlw	28	; case 90
  2581  01E3  1903               	skipnz
  2582  01E4  29B2               	goto	l1726
  2583  01E5  29BF               	goto	l1728
  2584  01E6                     l400:
  2585  01E6  0008               	return
  2586  01E7                     __end_of_decode_key:
  2587                           
  2588                           	psect	text3
  2589  02C4                     __ptext3:	
  2590 ;; *************** function _send_freq *****************
  2591 ;; Defined at:
  2592 ;;		line 211 in file "main.c"
  2593 ;; Parameters:    Size  Location     Type
  2594 ;;		None
  2595 ;; Auto vars:     Size  Location     Type
  2596 ;;		None
  2597 ;; Return value:  Size  Location     Type
  2598 ;;                  1    wreg      void 
  2599 ;; Registers used:
  2600 ;;		wreg, fsr0l, fsr0h, fsr1l, fsr1h, status,2, status,0, pclath, cstack
  2601 ;; Tracked objects:
  2602 ;;		On entry : 0/0
  2603 ;;		On exit  : 0/0
  2604 ;;		Unchanged: 0/0
  2605 ;; Data sizes:     COMMON   BANK0   BANK1   BANK2   BANK3   BANK4   BANK5   BANK6   BANK7   BANK8   BANK9  BANK10  BANK1
      +1  BANK12
  2606 ;;      Params:         0       0       0       0       0       0       0       0       0       0       0       0       
      +0       0
  2607 ;;      Locals:         0       0       0       0       0       0       0       0       0       0       0       0       
      +0       0
  2608 ;;      Temps:          0       0       0       0       0       0       0       0       0       0       0       0       
      +0       0
  2609 ;;      Totals:         0       0       0       0       0       0       0       0       0       0       0       0       
      +0       0
  2610 ;;Total ram usage:        0 bytes
  2611 ;; Hardware stack levels used: 1
  2612 ;; Hardware stack levels required when called: 7
  2613 ;; This function calls:
  2614 ;;		_parse_work_buf
  2615 ;;		_send_cmd
  2616 ;; This function is called by:
  2617 ;;		_decode_key
  2618 ;; This function uses a non-reentrant model
  2619 ;;
  2620                           
  2621                           
  2622                           ;psect for function _send_freq
  2623  02C4                     _send_freq:
  2624  02C4                     l1648:	
  2625                           ;incstack = 0
  2626                           ; Regs used in _send_freq: [wreg-fsr1h+status,2+status,0+pclath+cstack]
  2627                           
  2628                           
  2629                           ;main.c: 213:  if (work_cur_pos != 0) {
  2630  02C4  0020               	movlb	0	; select bank0
  2631  02C5  0834               	movf	_work_cur_pos,w
  2632  02C6  1903               	btfsc	3,2
  2633  02C7  2AC9               	goto	u891
  2634  02C8  2ACA               	goto	u890
  2635  02C9                     u891:
  2636  02C9  2AE5               	goto	l382
  2637  02CA                     u890:
  2638  02CA                     l1650:
  2639                           
  2640                           ;main.c: 214:   parse_work_buf();
  2641  02CA  3180  2021  3182   	fcall	_parse_work_buf
  2642  02CD                     l1652:
  2643                           
  2644                           ;main.c: 215:   send_cmd("FA");
  2645  02CD  3015               	movlw	low (STR_1| (0+32768))
  2646  02CE  0020               	movlb	0	; select bank0
  2647  02CF  00C9               	movwf	send_cmd@cmd
  2648  02D0  3084               	movlw	high (STR_1| (0+32768))
  2649  02D1  00CA               	movwf	send_cmd@cmd+1
  2650  02D2  3182  22E6  3182   	fcall	_send_cmd
  2651  02D5                     l1654:
  2652                           
  2653                           ;main.c: 216:   send_cmd(cmd_buf);
  2654  02D5  303B               	movlw	low _cmd_buf
  2655  02D6  0020               	movlb	0	; select bank0
  2656  02D7  00C9               	movwf	send_cmd@cmd
  2657  02D8  3000               	movlw	high _cmd_buf
  2658  02D9  00CA               	movwf	send_cmd@cmd+1
  2659  02DA  3182  22E6  3182   	fcall	_send_cmd
  2660  02DD                     l1656:
  2661                           
  2662                           ;main.c: 217:      send_cmd(";");
  2663  02DD  30C2               	movlw	low ((STR_4+3)| (0+32768))
  2664  02DE  0020               	movlb	0	; select bank0
  2665  02DF  00C9               	movwf	send_cmd@cmd
  2666  02E0  3082               	movlw	high ((STR_4+3)| (0+32768))
  2667  02E1  00CA               	movwf	send_cmd@cmd+1
  2668  02E2  3182  22E6  3182   	fcall	_send_cmd
  2669  02E5                     l382:
  2670  02E5  0008               	return
  2671  02E6                     __end_of_send_freq:
  2672                           
  2673                           	psect	text4
  2674  02E6                     __ptext4:	
  2675 ;; *************** function _send_cmd *****************
  2676 ;; Defined at:
  2677 ;;		line 199 in file "main.c"
  2678 ;; Parameters:    Size  Location     Type
  2679 ;;  cmd             2    4[BANK0 ] PTR unsigned char 
  2680 ;;		 -> STR_9(4), STR_8(4), STR_7(5), STR_6(5), 
  2681 ;;		 -> STR_5(4), STR_4(5), STR_3(5), STR_2(2), 
  2682 ;;		 -> STR_1(3), cmd_buf(10), 
  2683 ;; Auto vars:     Size  Location     Type
  2684 ;;  p               2    7[BANK0 ] PTR unsigned char 
  2685 ;;		 -> STR_9(4), STR_8(4), STR_7(5), STR_6(5), 
  2686 ;;		 -> STR_5(4), STR_4(5), STR_3(5), STR_2(2), 
  2687 ;;		 -> STR_1(3), cmd_buf(10), 
  2688 ;; Return value:  Size  Location     Type
  2689 ;;                  1    wreg      void 
  2690 ;; Registers used:
  2691 ;;		wreg, fsr0l, fsr0h, status,2, status,0, pclath, cstack
  2692 ;; Tracked objects:
  2693 ;;		On entry : 0/0
  2694 ;;		On exit  : 0/0
  2695 ;;		Unchanged: 0/0
  2696 ;; Data sizes:     COMMON   BANK0   BANK1   BANK2   BANK3   BANK4   BANK5   BANK6   BANK7   BANK8   BANK9  BANK10  BANK1
      +1  BANK12
  2697 ;;      Params:         0       2       0       0       0       0       0       0       0       0       0       0       
      +0       0
  2698 ;;      Locals:         0       2       0       0       0       0       0       0       0       0       0       0       
      +0       0
  2699 ;;      Temps:          0       1       0       0       0       0       0       0       0       0       0       0       
      +0       0
  2700 ;;      Totals:         0       5       0       0       0       0       0       0       0       0       0       0       
      +0       0
  2701 ;;Total ram usage:        5 bytes
  2702 ;; Hardware stack levels used: 1
  2703 ;; Hardware stack levels required when called: 6
  2704 ;; This function calls:
  2705 ;;		_EUSART_Write
  2706 ;; This function is called by:
  2707 ;;		_send_freq
  2708 ;;		_decode_key
  2709 ;; This function uses a non-reentrant model
  2710 ;;
  2711                           
  2712                           
  2713                           ;psect for function _send_cmd
  2714  02E6                     _send_cmd:
  2715  02E6                     l1514:	
  2716                           ;incstack = 0
  2717                           ; Regs used in _send_cmd: [wreg-fsr0h+status,2+status,0+pclath+cstack]
  2718                           
  2719                           
  2720                           ;main.c: 199: void send_cmd(char *cmd);main.c: 200: {;main.c: 201:  char *p = cmd;
  2721  02E6  0020               	movlb	0	; select bank0
  2722  02E7  084A               	movf	send_cmd@cmd+1,w
  2723  02E8  00CD               	movwf	send_cmd@p+1
  2724  02E9  0849               	movf	send_cmd@cmd,w
  2725  02EA  00CC               	movwf	send_cmd@p
  2726  02EB                     l1516:
  2727  02EB  0022               	movlb	2	; select bank2
  2728  02EC  168C               	bsf	12,5	;volatile
  2729  02ED  2AFB               	goto	l1522
  2730  02EE                     l1518:
  2731                           
  2732                           ;main.c: 204:      EUSART_Write(*p);
  2733  02EE  084C               	movf	send_cmd@p,w
  2734  02EF  0084               	movwf	4
  2735  02F0  084D               	movf	send_cmd@p+1,w
  2736  02F1  0085               	movwf	5
  2737  02F2  0800               	movf	0,w	;code access
  2738  02F3  3183  23CE  3182   	fcall	_EUSART_Write
  2739  02F6                     l1520:
  2740                           
  2741                           ;main.c: 205:   p++;
  2742  02F6  3001               	movlw	1
  2743  02F7  0020               	movlb	0	; select bank0
  2744  02F8  07CC               	addwf	send_cmd@p,f
  2745  02F9  3000               	movlw	0
  2746  02FA  3DCD               	addwfc	send_cmd@p+1,f
  2747  02FB                     l1522:
  2748                           
  2749                           ;main.c: 203:  while(*p){
  2750  02FB  0020               	movlb	0	; select bank0
  2751  02FC  084C               	movf	send_cmd@p,w
  2752  02FD  0084               	movwf	4
  2753  02FE  084D               	movf	send_cmd@p+1,w
  2754  02FF  0085               	movwf	5
  2755  0300  0012               	moviw fsr0++
  2756  0301  1D03               	btfss	3,2
  2757  0302  2B04               	goto	u791
  2758  0303  2B05               	goto	u790
  2759  0304                     u791:
  2760  0304  2AEE               	goto	l1518
  2761  0305                     u790:
  2762  0305                     l376:	
  2763                           ;main.c: 207:  do { LATAbits.LATA5 = 0; } while(0);
  2764                           
  2765  0305  0022               	movlb	2	; select bank2
  2766  0306  128C               	bcf	12,5	;volatile
  2767  0307                     l378:
  2768  0307  0008               	return
  2769  0308                     __end_of_send_cmd:
  2770                           
  2771                           	psect	text5
  2772  03CE                     __ptext5:	
  2773 ;; *************** function _EUSART_Write *****************
  2774 ;; Defined at:
  2775 ;;		line 132 in file "mcc_generated_files/eusart.c"
  2776 ;; Parameters:    Size  Location     Type
  2777 ;;  txData          1    wreg     unsigned char 
  2778 ;; Auto vars:     Size  Location     Type
  2779 ;;  txData          1    3[BANK0 ] unsigned char 
  2780 ;; Return value:  Size  Location     Type
  2781 ;;                  1    wreg      void 
  2782 ;; Registers used:
  2783 ;;		wreg
  2784 ;; Tracked objects:
  2785 ;;		On entry : 0/0
  2786 ;;		On exit  : 0/0
  2787 ;;		Unchanged: 0/0
  2788 ;; Data sizes:     COMMON   BANK0   BANK1   BANK2   BANK3   BANK4   BANK5   BANK6   BANK7   BANK8   BANK9  BANK10  BANK1
      +1  BANK12
  2789 ;;      Params:         0       0       0       0       0       0       0       0       0       0       0       0       
      +0       0
  2790 ;;      Locals:         0       1       0       0       0       0       0       0       0       0       0       0       
      +0       0
  2791 ;;      Temps:          0       0       0       0       0       0       0       0       0       0       0       0       
      +0       0
  2792 ;;      Totals:         0       1       0       0       0       0       0       0       0       0       0       0       
      +0       0
  2793 ;;Total ram usage:        1 bytes
  2794 ;; Hardware stack levels used: 1
  2795 ;; Hardware stack levels required when called: 5
  2796 ;; This function calls:
  2797 ;;		Nothing
  2798 ;; This function is called by:
  2799 ;;		_send_cmd
  2800 ;;		_putch
  2801 ;; This function uses a non-reentrant model
  2802 ;;
  2803                           
  2804                           
  2805                           ;psect for function _EUSART_Write
  2806  03CE                     _EUSART_Write:
  2807                           
  2808                           ;incstack = 0
  2809                           ; Regs used in _EUSART_Write: [wreg]
  2810                           ;EUSART_Write@txData stored from wreg
  2811  03CE  0020               	movlb	0	; select bank0
  2812  03CF  00C8               	movwf	EUSART_Write@txData
  2813  03D0                     l1402:
  2814  03D0                     l200:	
  2815                           ;mcc_generated_files/eusart.c: 135:     {;mcc_generated_files/eusart.c: 136:     }
  2816                           
  2817                           
  2818                           ;mcc_generated_files/eusart.c: 134:     while(0 == PIR1bits.TXIF)
  2819  03D0  1E11               	btfss	17,4	;volatile
  2820  03D1  2BD3               	goto	u521
  2821  03D2  2BD4               	goto	u520
  2822  03D3                     u521:
  2823  03D3  2BD0               	goto	l200
  2824  03D4                     u520:
  2825  03D4                     l1404:
  2826                           
  2827                           ;mcc_generated_files/eusart.c: 138:     TX1REG = txData;
  2828  03D4  0848               	movf	EUSART_Write@txData,w
  2829  03D5  0023               	movlb	3	; select bank3
  2830  03D6  009A               	movwf	26	;volatile
  2831  03D7                     l203:
  2832  03D7  0008               	return
  2833  03D8                     __end_of_EUSART_Write:
  2834                           
  2835                           	psect	text6
  2836  0021                     __ptext6:	
  2837 ;; *************** function _parse_work_buf *****************
  2838 ;; Defined at:
  2839 ;;		line 107 in file "main.c"
  2840 ;; Parameters:    Size  Location     Type
  2841 ;;		None
  2842 ;; Auto vars:     Size  Location     Type
  2843 ;;  j               2    8[BANK0 ] int 
  2844 ;;  i               2    6[BANK0 ] int 
  2845 ;; Return value:  Size  Location     Type
  2846 ;;                  1    wreg      void 
  2847 ;; Registers used:
  2848 ;;		wreg, fsr1l, fsr1h, status,2, status,0, pclath, cstack
  2849 ;; Tracked objects:
  2850 ;;		On entry : 0/0
  2851 ;;		On exit  : 0/0
  2852 ;;		Unchanged: 0/0
  2853 ;; Data sizes:     COMMON   BANK0   BANK1   BANK2   BANK3   BANK4   BANK5   BANK6   BANK7   BANK8   BANK9  BANK10  BANK1
      +1  BANK12
  2854 ;;      Params:         0       0       0       0       0       0       0       0       0       0       0       0       
      +0       0
  2855 ;;      Locals:         0       4       0       0       0       0       0       0       0       0       0       0       
      +0       0
  2856 ;;      Temps:          0       1       0       0       0       0       0       0       0       0       0       0       
      +0       0
  2857 ;;      Totals:         0       5       0       0       0       0       0       0       0       0       0       0       
      +0       0
  2858 ;;Total ram usage:        5 bytes
  2859 ;; Hardware stack levels used: 1
  2860 ;; Hardware stack levels required when called: 6
  2861 ;; This function calls:
  2862 ;;		_add_cmd_buf
  2863 ;; This function is called by:
  2864 ;;		_send_freq
  2865 ;; This function uses a non-reentrant model
  2866 ;;
  2867                           
  2868                           
  2869                           ;psect for function _parse_work_buf
  2870  0021                     _parse_work_buf:
  2871  0021                     l1434:	
  2872                           ;incstack = 0
  2873                           ; Regs used in _parse_work_buf: [wreg+fsr1l+fsr1h+status,2+status,0+pclath+cstack]
  2874                           
  2875                           
  2876                           ;main.c: 109:  int i, j;;main.c: 110:  for (i = 0; i < 10; i++) {
  2877  0021  0020               	movlb	0	; select bank0
  2878  0022  01CB               	clrf	parse_work_buf@i
  2879  0023  01CC               	clrf	parse_work_buf@i+1
  2880  0024                     l1440:
  2881                           
  2882                           ;main.c: 111:   if (work_buf[i] == '.') {
  2883  0024  0020               	movlb	0	; select bank0
  2884  0025  084B               	movf	parse_work_buf@i,w
  2885  0026  3E20               	addlw	(low (_work_buf| 0))& (0+255)
  2886  0027  0086               	movwf	6
  2887  0028  0187               	clrf	7
  2888  0029  302E               	movlw	46
  2889  002A  0601               	xorwf	1,w
  2890  002B  1D03               	btfss	3,2
  2891  002C  282E               	goto	u581
  2892  002D  282F               	goto	u580
  2893  002E                     u581:
  2894  002E  285C               	goto	l1452
  2895  002F                     u580:
  2896  002F                     l1442:
  2897                           
  2898                           ;main.c: 112:    for (j = i - 3; j < i; j++) {
  2899  002F  084B               	movf	parse_work_buf@i,w
  2900  0030  3EFD               	addlw	253
  2901  0031  00CD               	movwf	parse_work_buf@j
  2902  0032  30FF               	movlw	255
  2903  0033  3D4C               	addwfc	parse_work_buf@i+1,w
  2904  0034  00CE               	movwf	parse_work_buf@j+1
  2905  0035  284D               	goto	l1450
  2906  0036                     l302:
  2907                           
  2908                           ;main.c: 113:     if (j < 0) {
  2909  0036  0020               	movlb	0	; select bank0
  2910  0037  1FCE               	btfss	parse_work_buf@j+1,7
  2911  0038  283A               	goto	u591
  2912  0039  283B               	goto	u590
  2913  003A                     u591:
  2914  003A  2840               	goto	l1446
  2915  003B                     u590:
  2916  003B                     l1444:
  2917                           
  2918                           ;main.c: 114:      add_cmd_buf('0');
  2919  003B  3030               	movlw	48
  2920  003C  3183  2354  3180   	fcall	_add_cmd_buf
  2921                           
  2922                           ;main.c: 115:     } else {
  2923  003F  2848               	goto	l1448
  2924  0040                     l1446:
  2925                           
  2926                           ;main.c: 116:      add_cmd_buf(work_buf[j]);
  2927  0040  084D               	movf	parse_work_buf@j,w
  2928  0041  3E20               	addlw	(low (_work_buf| 0))& (0+255)
  2929  0042  0086               	movwf	6
  2930  0043  0187               	clrf	7
  2931  0044  0801               	movf	1,w
  2932  0045  3183  2354  3180   	fcall	_add_cmd_buf
  2933  0048                     l1448:
  2934                           
  2935                           ;main.c: 118:    }
  2936  0048  3001               	movlw	1
  2937  0049  0020               	movlb	0	; select bank0
  2938  004A  07CD               	addwf	parse_work_buf@j,f
  2939  004B  3000               	movlw	0
  2940  004C  3DCE               	addwfc	parse_work_buf@j+1,f
  2941  004D                     l1450:
  2942  004D  084E               	movf	parse_work_buf@j+1,w
  2943  004E  3A80               	xorlw	128
  2944  004F  00CA               	movwf	??_parse_work_buf
  2945  0050  084C               	movf	parse_work_buf@i+1,w
  2946  0051  3A80               	xorlw	128
  2947  0052  024A               	subwf	??_parse_work_buf,w
  2948  0053  1D03               	skipz
  2949  0054  2857               	goto	u605
  2950  0055  084B               	movf	parse_work_buf@i,w
  2951  0056  024D               	subwf	parse_work_buf@j,w
  2952  0057                     u605:
  2953  0057  1C03               	skipc
  2954  0058  285A               	goto	u601
  2955  0059  285B               	goto	u600
  2956  005A                     u601:
  2957  005A  2836               	goto	l302
  2958  005B                     u600:
  2959  005B  286D               	goto	l1454
  2960  005C                     l1452:
  2961                           
  2962                           ;main.c: 121:  }
  2963  005C  3001               	movlw	1
  2964  005D  07CB               	addwf	parse_work_buf@i,f
  2965  005E  3000               	movlw	0
  2966  005F  3DCC               	addwfc	parse_work_buf@i+1,f
  2967  0060  084C               	movf	parse_work_buf@i+1,w
  2968  0061  3A80               	xorlw	128
  2969  0062  00CA               	movwf	??_parse_work_buf
  2970  0063  3080               	movlw	128
  2971  0064  024A               	subwf	??_parse_work_buf,w
  2972  0065  1D03               	skipz
  2973  0066  2869               	goto	u615
  2974  0067  300A               	movlw	10
  2975  0068  024B               	subwf	parse_work_buf@i,w
  2976  0069                     u615:
  2977  0069  1C03               	skipc
  2978  006A  286C               	goto	u611
  2979  006B  286D               	goto	u610
  2980  006C                     u611:
  2981  006C  2824               	goto	l1440
  2982  006D                     u610:
  2983  006D                     l1454:
  2984                           
  2985                           ;main.c: 122:  if (i >= 10) {
  2986  006D  0020               	movlb	0	; select bank0
  2987  006E  084C               	movf	parse_work_buf@i+1,w
  2988  006F  3A80               	xorlw	128
  2989  0070  00CA               	movwf	??_parse_work_buf
  2990  0071  3080               	movlw	128
  2991  0072  024A               	subwf	??_parse_work_buf,w
  2992  0073  1D03               	skipz
  2993  0074  2877               	goto	u625
  2994  0075  300A               	movlw	10
  2995  0076  024B               	subwf	parse_work_buf@i,w
  2996  0077                     u625:
  2997  0077  1C03               	skipc
  2998  0078  287A               	goto	u621
  2999  0079  287B               	goto	u620
  3000  007A                     u621:
  3001  007A  289A               	goto	l1468
  3002  007B                     u620:
  3003  007B                     l1456:
  3004                           
  3005                           ;main.c: 123:   for (j = 0; j < 10; j++) {
  3006  007B  0020               	movlb	0	; select bank0
  3007  007C  01CD               	clrf	parse_work_buf@j
  3008  007D  01CE               	clrf	parse_work_buf@j+1
  3009  007E                     l1462:
  3010                           
  3011                           ;main.c: 124:    add_cmd_buf(work_buf[j]);
  3012  007E  0020               	movlb	0	; select bank0
  3013  007F  084D               	movf	parse_work_buf@j,w
  3014  0080  3E20               	addlw	(low (_work_buf| 0))& (0+255)
  3015  0081  0086               	movwf	6
  3016  0082  0187               	clrf	7
  3017  0083  0801               	movf	1,w
  3018  0084  3183  2354  3180   	fcall	_add_cmd_buf
  3019  0087                     l1464:
  3020                           
  3021                           ;main.c: 125:   }
  3022  0087  3001               	movlw	1
  3023  0088  0020               	movlb	0	; select bank0
  3024  0089  07CD               	addwf	parse_work_buf@j,f
  3025  008A  3000               	movlw	0
  3026  008B  3DCE               	addwfc	parse_work_buf@j+1,f
  3027  008C                     l1466:
  3028  008C  084E               	movf	parse_work_buf@j+1,w
  3029  008D  3A80               	xorlw	128
  3030  008E  00CA               	movwf	??_parse_work_buf
  3031  008F  3080               	movlw	128
  3032  0090  024A               	subwf	??_parse_work_buf,w
  3033  0091  1D03               	skipz
  3034  0092  2895               	goto	u635
  3035  0093  300A               	movlw	10
  3036  0094  024D               	subwf	parse_work_buf@j,w
  3037  0095                     u635:
  3038  0095  1C03               	skipc
  3039  0096  2898               	goto	u631
  3040  0097  2899               	goto	u630
  3041  0098                     u631:
  3042  0098  287E               	goto	l1462
  3043  0099                     u630:
  3044  0099  28C8               	goto	l313
  3045  009A                     l1468:
  3046                           
  3047                           ;main.c: 127:   for (j = i + 1; j < 10; j++) {
  3048  009A  0020               	movlb	0	; select bank0
  3049  009B  084B               	movf	parse_work_buf@i,w
  3050  009C  3E01               	addlw	1
  3051  009D  00CD               	movwf	parse_work_buf@j
  3052  009E  3000               	movlw	0
  3053  009F  3D4C               	addwfc	parse_work_buf@i+1,w
  3054  00A0  00CE               	movwf	parse_work_buf@j+1
  3055  00A1                     l1470:
  3056  00A1  084E               	movf	parse_work_buf@j+1,w
  3057  00A2  3A80               	xorlw	128
  3058  00A3  00CA               	movwf	??_parse_work_buf
  3059  00A4  3080               	movlw	128
  3060  00A5  024A               	subwf	??_parse_work_buf,w
  3061  00A6  1D03               	skipz
  3062  00A7  28AA               	goto	u645
  3063  00A8  300A               	movlw	10
  3064  00A9  024D               	subwf	parse_work_buf@j,w
  3065  00AA                     u645:
  3066  00AA  1C03               	skipc
  3067  00AB  28AD               	goto	u641
  3068  00AC  28AE               	goto	u640
  3069  00AD                     u641:
  3070  00AD  28AF               	goto	l1474
  3071  00AE                     u640:
  3072  00AE  28C8               	goto	l313
  3073  00AF                     l1474:
  3074                           
  3075                           ;main.c: 128:    if (work_buf[j] != '.') {
  3076  00AF  0020               	movlb	0	; select bank0
  3077  00B0  084D               	movf	parse_work_buf@j,w
  3078  00B1  3E20               	addlw	(low (_work_buf| 0))& (0+255)
  3079  00B2  0086               	movwf	6
  3080  00B3  0187               	clrf	7
  3081  00B4  302E               	movlw	46
  3082  00B5  0601               	xorwf	1,w
  3083  00B6  1903               	btfsc	3,2
  3084  00B7  28B9               	goto	u651
  3085  00B8  28BA               	goto	u650
  3086  00B9                     u651:
  3087  00B9  28C2               	goto	l1478
  3088  00BA                     u650:
  3089  00BA                     l1476:
  3090                           
  3091                           ;main.c: 129:     add_cmd_buf(work_buf[j]);
  3092  00BA  084D               	movf	parse_work_buf@j,w
  3093  00BB  3E20               	addlw	(low (_work_buf| 0))& (0+255)
  3094  00BC  0086               	movwf	6
  3095  00BD  0187               	clrf	7
  3096  00BE  0801               	movf	1,w
  3097  00BF  3183  2354  3180   	fcall	_add_cmd_buf
  3098  00C2                     l1478:
  3099                           
  3100                           ;main.c: 131:   }
  3101  00C2  3001               	movlw	1
  3102  00C3  0020               	movlb	0	; select bank0
  3103  00C4  07CD               	addwf	parse_work_buf@j,f
  3104  00C5  3000               	movlw	0
  3105  00C6  3DCE               	addwfc	parse_work_buf@j+1,f
  3106  00C7  28A1               	goto	l1470
  3107  00C8                     l313:
  3108  00C8  0008               	return
  3109  00C9                     __end_of_parse_work_buf:
  3110                           
  3111                           	psect	text7
  3112  0354                     __ptext7:	
  3113 ;; *************** function _add_cmd_buf *****************
  3114 ;; Defined at:
  3115 ;;		line 93 in file "main.c"
  3116 ;; Parameters:    Size  Location     Type
  3117 ;;  key             1    wreg     unsigned char 
  3118 ;; Auto vars:     Size  Location     Type
  3119 ;;  key             1    4[BANK0 ] unsigned char 
  3120 ;; Return value:  Size  Location     Type
  3121 ;;                  1    wreg      void 
  3122 ;; Registers used:
  3123 ;;		wreg, fsr1l, fsr1h, status,2, status,0
  3124 ;; Tracked objects:
  3125 ;;		On entry : 0/0
  3126 ;;		On exit  : 0/0
  3127 ;;		Unchanged: 0/0
  3128 ;; Data sizes:     COMMON   BANK0   BANK1   BANK2   BANK3   BANK4   BANK5   BANK6   BANK7   BANK8   BANK9  BANK10  BANK1
      +1  BANK12
  3129 ;;      Params:         0       0       0       0       0       0       0       0       0       0       0       0       
      +0       0
  3130 ;;      Locals:         0       1       0       0       0       0       0       0       0       0       0       0       
      +0       0
  3131 ;;      Temps:          0       1       0       0       0       0       0       0       0       0       0       0       
      +0       0
  3132 ;;      Totals:         0       2       0       0       0       0       0       0       0       0       0       0       
      +0       0
  3133 ;;Total ram usage:        2 bytes
  3134 ;; Hardware stack levels used: 1
  3135 ;; Hardware stack levels required when called: 5
  3136 ;; This function calls:
  3137 ;;		Nothing
  3138 ;; This function is called by:
  3139 ;;		_parse_work_buf
  3140 ;; This function uses a non-reentrant model
  3141 ;;
  3142                           
  3143                           
  3144                           ;psect for function _add_cmd_buf
  3145  0354                     _add_cmd_buf:
  3146                           
  3147                           ;incstack = 0
  3148                           ; Regs used in _add_cmd_buf: [wreg+fsr1l+fsr1h+status,2+status,0]
  3149                           ;add_cmd_buf@key stored from wreg
  3150  0354  0020               	movlb	0	; select bank0
  3151  0355  00C9               	movwf	add_cmd_buf@key
  3152  0356                     l1406:
  3153                           
  3154                           ;main.c: 93: void add_cmd_buf(char key);main.c: 94: {;main.c: 95:  if (cmd_cur_pos != 10
      +                           - 1) {
  3155  0356  3009               	movlw	9
  3156  0357  0633               	xorwf	_cmd_cur_pos,w
  3157  0358  1903               	btfsc	3,2
  3158  0359  2B5B               	goto	u531
  3159  035A  2B5C               	goto	u530
  3160  035B                     u531:
  3161  035B  2B68               	goto	l291
  3162  035C                     u530:
  3163  035C                     l1408:
  3164                           
  3165                           ;main.c: 96:   cmd_buf[cmd_cur_pos++] = key;
  3166  035C  0849               	movf	add_cmd_buf@key,w
  3167  035D  00C8               	movwf	??_add_cmd_buf
  3168  035E  0833               	movf	_cmd_cur_pos,w
  3169  035F  3E3B               	addlw	(low (_cmd_buf| 0))& (0+255)
  3170  0360  0086               	movwf	6
  3171  0361  0187               	clrf	7
  3172  0362  0848               	movf	??_add_cmd_buf,w
  3173  0363  0081               	movwf	1
  3174  0364                     l1410:
  3175  0364  3001               	movlw	1
  3176  0365  00C8               	movwf	??_add_cmd_buf
  3177  0366  0848               	movf	??_add_cmd_buf,w
  3178  0367  07B3               	addwf	_cmd_cur_pos,f
  3179  0368                     l291:
  3180  0368  0008               	return
  3181  0369                     __end_of_add_cmd_buf:
  3182                           
  3183                           	psect	text8
  3184  0226                     __ptext8:	
  3185 ;; *************** function _clear_buf *****************
  3186 ;; Defined at:
  3187 ;;		line 71 in file "main.c"
  3188 ;; Parameters:    Size  Location     Type
  3189 ;;		None
  3190 ;; Auto vars:     Size  Location     Type
  3191 ;;  i               2    4[BANK0 ] int 
  3192 ;; Return value:  Size  Location     Type
  3193 ;;                  1    wreg      void 
  3194 ;; Registers used:
  3195 ;;		wreg, fsr1l, fsr1h, status,2, status,0
  3196 ;; Tracked objects:
  3197 ;;		On entry : 0/0
  3198 ;;		On exit  : 0/0
  3199 ;;		Unchanged: 0/0
  3200 ;; Data sizes:     COMMON   BANK0   BANK1   BANK2   BANK3   BANK4   BANK5   BANK6   BANK7   BANK8   BANK9  BANK10  BANK1
      +1  BANK12
  3201 ;;      Params:         0       0       0       0       0       0       0       0       0       0       0       0       
      +0       0
  3202 ;;      Locals:         0       2       0       0       0       0       0       0       0       0       0       0       
      +0       0
  3203 ;;      Temps:          0       1       0       0       0       0       0       0       0       0       0       0       
      +0       0
  3204 ;;      Totals:         0       3       0       0       0       0       0       0       0       0       0       0       
      +0       0
  3205 ;;Total ram usage:        3 bytes
  3206 ;; Hardware stack levels used: 1
  3207 ;; Hardware stack levels required when called: 5
  3208 ;; This function calls:
  3209 ;;		Nothing
  3210 ;; This function is called by:
  3211 ;;		_decode_key
  3212 ;;		_setup
  3213 ;; This function uses a non-reentrant model
  3214 ;;
  3215                           
  3216                           
  3217                           ;psect for function _clear_buf
  3218  0226                     _clear_buf:
  3219  0226                     l1590:	
  3220                           ;incstack = 0
  3221                           ; Regs used in _clear_buf: [wreg+fsr1l+fsr1h+status,2+status,0]
  3222                           
  3223                           
  3224                           ;main.c: 73:  int i;;main.c: 74:  work_cur_pos = 0;
  3225  0226  0020               	movlb	0	; select bank0
  3226  0227  01B4               	clrf	_work_cur_pos
  3227                           
  3228                           ;main.c: 75:  cmd_cur_pos = 0;
  3229  0228  01B3               	clrf	_cmd_cur_pos
  3230                           
  3231                           ;main.c: 77:  for (i = 0; i < 10; i++) {
  3232  0229  01C9               	clrf	clear_buf@i
  3233  022A  01CA               	clrf	clear_buf@i+1
  3234  022B                     l1596:
  3235                           
  3236                           ;main.c: 78:   work_buf[i] = '0';
  3237  022B  3030               	movlw	48
  3238  022C  0020               	movlb	0	; select bank0
  3239  022D  00C8               	movwf	??_clear_buf
  3240  022E  0849               	movf	clear_buf@i,w
  3241  022F  3E20               	addlw	(low (_work_buf| 0))& (0+255)
  3242  0230  0086               	movwf	6
  3243  0231  0187               	clrf	7
  3244  0232  0848               	movf	??_clear_buf,w
  3245  0233  0081               	movwf	1
  3246                           
  3247                           ;main.c: 79:   cmd_buf[i] = '0';
  3248  0234  3030               	movlw	48
  3249  0235  00C8               	movwf	??_clear_buf
  3250  0236  0849               	movf	clear_buf@i,w
  3251  0237  3E3B               	addlw	(low (_cmd_buf| 0))& (0+255)
  3252  0238  0086               	movwf	6
  3253  0239  0187               	clrf	7
  3254  023A  0848               	movf	??_clear_buf,w
  3255  023B  0081               	movwf	1
  3256  023C                     l1598:
  3257                           
  3258                           ;main.c: 80:  }
  3259  023C  3001               	movlw	1
  3260  023D  07C9               	addwf	clear_buf@i,f
  3261  023E  3000               	movlw	0
  3262  023F  3DCA               	addwfc	clear_buf@i+1,f
  3263  0240                     l1600:
  3264  0240  084A               	movf	clear_buf@i+1,w
  3265  0241  3A80               	xorlw	128
  3266  0242  00C8               	movwf	??_clear_buf
  3267  0243  3080               	movlw	128
  3268  0244  0248               	subwf	??_clear_buf,w
  3269  0245  1D03               	skipz
  3270  0246  2A49               	goto	u815
  3271  0247  300A               	movlw	10
  3272  0248  0249               	subwf	clear_buf@i,w
  3273  0249                     u815:
  3274  0249  1C03               	skipc
  3275  024A  2A4C               	goto	u811
  3276  024B  2A4D               	goto	u810
  3277  024C                     u811:
  3278  024C  2A2B               	goto	l1596
  3279  024D                     u810:
  3280  024D                     l1602:
  3281                           
  3282                           ;main.c: 81:  cmd_buf[10 - 1] = '\0';
  3283  024D  0020               	movlb	0	; select bank0
  3284  024E  01C4               	clrf	_cmd_buf+9
  3285                           
  3286                           ;main.c: 82:  work_cur_pos = 0;
  3287  024F  01B4               	clrf	_work_cur_pos
  3288                           
  3289                           ;main.c: 83:  cmd_cur_pos = 0;
  3290  0250  01B3               	clrf	_cmd_cur_pos
  3291  0251                     l283:
  3292  0251  0008               	return
  3293  0252                     __end_of_clear_buf:
  3294                           
  3295                           	psect	text9
  3296  0390                     __ptext9:	
  3297 ;; *************** function _bs_work_buf *****************
  3298 ;; Defined at:
  3299 ;;		line 100 in file "main.c"
  3300 ;; Parameters:    Size  Location     Type
  3301 ;;		None
  3302 ;; Auto vars:     Size  Location     Type
  3303 ;;		None
  3304 ;; Return value:  Size  Location     Type
  3305 ;;                  1    wreg      void 
  3306 ;; Registers used:
  3307 ;;		wreg, fsr1l, fsr1h, status,2, status,0
  3308 ;; Tracked objects:
  3309 ;;		On entry : 0/0
  3310 ;;		On exit  : 0/0
  3311 ;;		Unchanged: 0/0
  3312 ;; Data sizes:     COMMON   BANK0   BANK1   BANK2   BANK3   BANK4   BANK5   BANK6   BANK7   BANK8   BANK9  BANK10  BANK1
      +1  BANK12
  3313 ;;      Params:         0       0       0       0       0       0       0       0       0       0       0       0       
      +0       0
  3314 ;;      Locals:         0       0       0       0       0       0       0       0       0       0       0       0       
      +0       0
  3315 ;;      Temps:          0       1       0       0       0       0       0       0       0       0       0       0       
      +0       0
  3316 ;;      Totals:         0       1       0       0       0       0       0       0       0       0       0       0       
      +0       0
  3317 ;;Total ram usage:        1 bytes
  3318 ;; Hardware stack levels used: 1
  3319 ;; Hardware stack levels required when called: 5
  3320 ;; This function calls:
  3321 ;;		Nothing
  3322 ;; This function is called by:
  3323 ;;		_decode_key
  3324 ;; This function uses a non-reentrant model
  3325 ;;
  3326                           
  3327                           
  3328                           ;psect for function _bs_work_buf
  3329  0390                     _bs_work_buf:
  3330  0390                     l1610:	
  3331                           ;incstack = 0
  3332                           ; Regs used in _bs_work_buf: [wreg+fsr1l+fsr1h+status,2+status,0]
  3333                           
  3334                           
  3335                           ;main.c: 102:  if (work_cur_pos > 0) {
  3336  0390  0020               	movlb	0	; select bank0
  3337  0391  0834               	movf	_work_cur_pos,w
  3338  0392  1903               	btfsc	3,2
  3339  0393  2B95               	goto	u831
  3340  0394  2B96               	goto	u830
  3341  0395                     u831:
  3342  0395  2BA0               	goto	l295
  3343  0396                     u830:
  3344  0396                     l1612:
  3345                           
  3346                           ;main.c: 103:   work_buf[--work_cur_pos] = '0';
  3347  0396  3030               	movlw	48
  3348  0397  00C8               	movwf	??_bs_work_buf
  3349  0398  3001               	movlw	1
  3350  0399  02B4               	subwf	_work_cur_pos,f
  3351  039A  0834               	movf	_work_cur_pos,w
  3352  039B  3E20               	addlw	(low (_work_buf| 0))& (0+255)
  3353  039C  0086               	movwf	6
  3354  039D  0187               	clrf	7
  3355  039E  0848               	movf	??_bs_work_buf,w
  3356  039F  0081               	movwf	1
  3357  03A0                     l295:
  3358  03A0  0008               	return
  3359  03A1                     __end_of_bs_work_buf:
  3360                           
  3361                           	psect	text10
  3362  0369                     __ptext10:	
  3363 ;; *************** function _add_work_buf *****************
  3364 ;; Defined at:
  3365 ;;		line 86 in file "main.c"
  3366 ;; Parameters:    Size  Location     Type
  3367 ;;  key             1    wreg     unsigned char 
  3368 ;; Auto vars:     Size  Location     Type
  3369 ;;  key             1    4[BANK0 ] unsigned char 
  3370 ;; Return value:  Size  Location     Type
  3371 ;;                  1    wreg      void 
  3372 ;; Registers used:
  3373 ;;		wreg, fsr1l, fsr1h, status,2, status,0
  3374 ;; Tracked objects:
  3375 ;;		On entry : 0/0
  3376 ;;		On exit  : 0/0
  3377 ;;		Unchanged: 0/0
  3378 ;; Data sizes:     COMMON   BANK0   BANK1   BANK2   BANK3   BANK4   BANK5   BANK6   BANK7   BANK8   BANK9  BANK10  BANK1
      +1  BANK12
  3379 ;;      Params:         0       0       0       0       0       0       0       0       0       0       0       0       
      +0       0
  3380 ;;      Locals:         0       1       0       0       0       0       0       0       0       0       0       0       
      +0       0
  3381 ;;      Temps:          0       1       0       0       0       0       0       0       0       0       0       0       
      +0       0
  3382 ;;      Totals:         0       2       0       0       0       0       0       0       0       0       0       0       
      +0       0
  3383 ;;Total ram usage:        2 bytes
  3384 ;; Hardware stack levels used: 1
  3385 ;; Hardware stack levels required when called: 5
  3386 ;; This function calls:
  3387 ;;		Nothing
  3388 ;; This function is called by:
  3389 ;;		_decode_key
  3390 ;; This function uses a non-reentrant model
  3391 ;;
  3392                           
  3393                           
  3394                           ;psect for function _add_work_buf
  3395  0369                     _add_work_buf:
  3396                           
  3397                           ;incstack = 0
  3398                           ; Regs used in _add_work_buf: [wreg+fsr1l+fsr1h+status,2+status,0]
  3399                           ;add_work_buf@key stored from wreg
  3400  0369  0020               	movlb	0	; select bank0
  3401  036A  00C9               	movwf	add_work_buf@key
  3402  036B                     l1604:
  3403                           
  3404                           ;main.c: 86: void add_work_buf(char key);main.c: 87: {;main.c: 88:  if (work_cur_pos != 
      +                          10) {
  3405  036B  300A               	movlw	10
  3406  036C  0634               	xorwf	_work_cur_pos,w
  3407  036D  1903               	btfsc	3,2
  3408  036E  2B70               	goto	u821
  3409  036F  2B71               	goto	u820
  3410  0370                     u821:
  3411  0370  2B7D               	goto	l287
  3412  0371                     u820:
  3413  0371                     l1606:
  3414                           
  3415                           ;main.c: 89:   work_buf[work_cur_pos++] = key;
  3416  0371  0849               	movf	add_work_buf@key,w
  3417  0372  00C8               	movwf	??_add_work_buf
  3418  0373  0834               	movf	_work_cur_pos,w
  3419  0374  3E20               	addlw	(low (_work_buf| 0))& (0+255)
  3420  0375  0086               	movwf	6
  3421  0376  0187               	clrf	7
  3422  0377  0848               	movf	??_add_work_buf,w
  3423  0378  0081               	movwf	1
  3424  0379                     l1608:
  3425  0379  3001               	movlw	1
  3426  037A  00C8               	movwf	??_add_work_buf
  3427  037B  0848               	movf	??_add_work_buf,w
  3428  037C  07B4               	addwf	_work_cur_pos,f
  3429  037D                     l287:
  3430  037D  0008               	return
  3431  037E                     __end_of_add_work_buf:
  3432                           
  3433                           	psect	text11
  3434  03A1                     __ptext11:	
  3435 ;; *************** function _SYSTEM_Initialize *****************
  3436 ;; Defined at:
  3437 ;;		line 50 in file "mcc_generated_files/mcc.c"
  3438 ;; Parameters:    Size  Location     Type
  3439 ;;		None
  3440 ;; Auto vars:     Size  Location     Type
  3441 ;;		None
  3442 ;; Return value:  Size  Location     Type
  3443 ;;                  1    wreg      void 
  3444 ;; Registers used:
  3445 ;;		wreg, status,2, status,0, pclath, cstack
  3446 ;; Tracked objects:
  3447 ;;		On entry : 0/0
  3448 ;;		On exit  : 0/0
  3449 ;;		Unchanged: 0/0
  3450 ;; Data sizes:     COMMON   BANK0   BANK1   BANK2   BANK3   BANK4   BANK5   BANK6   BANK7   BANK8   BANK9  BANK10  BANK1
      +1  BANK12
  3451 ;;      Params:         0       0       0       0       0       0       0       0       0       0       0       0       
      +0       0
  3452 ;;      Locals:         0       0       0       0       0       0       0       0       0       0       0       0       
      +0       0
  3453 ;;      Temps:          0       0       0       0       0       0       0       0       0       0       0       0       
      +0       0
  3454 ;;      Totals:         0       0       0       0       0       0       0       0       0       0       0       0       
      +0       0
  3455 ;;Total ram usage:        0 bytes
  3456 ;; Hardware stack levels used: 1
  3457 ;; Hardware stack levels required when called: 7
  3458 ;; This function calls:
  3459 ;;		_EUSART_Initialize
  3460 ;;		_OSCILLATOR_Initialize
  3461 ;;		_PIN_MANAGER_Initialize
  3462 ;;		_TMR0_Initialize
  3463 ;;		_WDT_Initialize
  3464 ;; This function is called by:
  3465 ;;		_main
  3466 ;; This function uses a non-reentrant model
  3467 ;;
  3468                           
  3469                           
  3470                           ;psect for function _SYSTEM_Initialize
  3471  03A1                     _SYSTEM_Initialize:
  3472  03A1                     l1668:	
  3473                           ;incstack = 0
  3474                           ; Regs used in _SYSTEM_Initialize: [wreg+status,2+status,0+pclath+cstack]
  3475                           
  3476                           
  3477                           ;mcc_generated_files/mcc.c: 53:     PIN_MANAGER_Initialize();
  3478  03A1  3182  2252  3183   	fcall	_PIN_MANAGER_Initialize
  3479                           
  3480                           ;mcc_generated_files/mcc.c: 54:     OSCILLATOR_Initialize();
  3481  03A4  3183  23C1  3183   	fcall	_OSCILLATOR_Initialize
  3482                           
  3483                           ;mcc_generated_files/mcc.c: 55:     WDT_Initialize();
  3484  03A7  3184  2411  3183   	fcall	_WDT_Initialize
  3485                           
  3486                           ;mcc_generated_files/mcc.c: 56:     TMR0_Initialize();
  3487  03AA  3183  233E  3183   	fcall	_TMR0_Initialize
  3488                           
  3489                           ;mcc_generated_files/mcc.c: 57:     EUSART_Initialize();
  3490  03AD  3182  227B  3183   	fcall	_EUSART_Initialize
  3491  03B0                     l88:
  3492  03B0  0008               	return
  3493  03B1                     __end_of_SYSTEM_Initialize:
  3494                           
  3495                           	psect	text12
  3496  0411                     __ptext12:	
  3497 ;; *************** function _WDT_Initialize *****************
  3498 ;; Defined at:
  3499 ;;		line 76 in file "mcc_generated_files/mcc.c"
  3500 ;; Parameters:    Size  Location     Type
  3501 ;;		None
  3502 ;; Auto vars:     Size  Location     Type
  3503 ;;		None
  3504 ;; Return value:  Size  Location     Type
  3505 ;;                  1    wreg      void 
  3506 ;; Registers used:
  3507 ;;		wreg
  3508 ;; Tracked objects:
  3509 ;;		On entry : 0/0
  3510 ;;		On exit  : 0/0
  3511 ;;		Unchanged: 0/0
  3512 ;; Data sizes:     COMMON   BANK0   BANK1   BANK2   BANK3   BANK4   BANK5   BANK6   BANK7   BANK8   BANK9  BANK10  BANK1
      +1  BANK12
  3513 ;;      Params:         0       0       0       0       0       0       0       0       0       0       0       0       
      +0       0
  3514 ;;      Locals:         0       0       0       0       0       0       0       0       0       0       0       0       
      +0       0
  3515 ;;      Temps:          0       0       0       0       0       0       0       0       0       0       0       0       
      +0       0
  3516 ;;      Totals:         0       0       0       0       0       0       0       0       0       0       0       0       
      +0       0
  3517 ;;Total ram usage:        0 bytes
  3518 ;; Hardware stack levels used: 1
  3519 ;; Hardware stack levels required when called: 5
  3520 ;; This function calls:
  3521 ;;		Nothing
  3522 ;; This function is called by:
  3523 ;;		_SYSTEM_Initialize
  3524 ;; This function uses a non-reentrant model
  3525 ;;
  3526                           
  3527                           
  3528                           ;psect for function _WDT_Initialize
  3529  0411                     _WDT_Initialize:
  3530  0411                     l1566:	
  3531                           ;incstack = 0
  3532                           ; Regs used in _WDT_Initialize: [wreg]
  3533                           
  3534                           
  3535                           ;mcc_generated_files/mcc.c: 79:     WDTCON = 0x16;
  3536  0411  3016               	movlw	22
  3537  0412  0021               	movlb	1	; select bank1
  3538  0413  0097               	movwf	23	;volatile
  3539  0414                     l97:
  3540  0414  0008               	return
  3541  0415                     __end_of_WDT_Initialize:
  3542                           
  3543                           	psect	text13
  3544  033E                     __ptext13:	
  3545 ;; *************** function _TMR0_Initialize *****************
  3546 ;; Defined at:
  3547 ;;		line 64 in file "mcc_generated_files/tmr0.c"
  3548 ;; Parameters:    Size  Location     Type
  3549 ;;		None
  3550 ;; Auto vars:     Size  Location     Type
  3551 ;;		None
  3552 ;; Return value:  Size  Location     Type
  3553 ;;                  1    wreg      void 
  3554 ;; Registers used:
  3555 ;;		wreg, status,2, status,0, pclath, cstack
  3556 ;; Tracked objects:
  3557 ;;		On entry : 0/0
  3558 ;;		On exit  : 0/0
  3559 ;;		Unchanged: 0/0
  3560 ;; Data sizes:     COMMON   BANK0   BANK1   BANK2   BANK3   BANK4   BANK5   BANK6   BANK7   BANK8   BANK9  BANK10  BANK1
      +1  BANK12
  3561 ;;      Params:         0       0       0       0       0       0       0       0       0       0       0       0       
      +0       0
  3562 ;;      Locals:         0       0       0       0       0       0       0       0       0       0       0       0       
      +0       0
  3563 ;;      Temps:          0       1       0       0       0       0       0       0       0       0       0       0       
      +0       0
  3564 ;;      Totals:         0       1       0       0       0       0       0       0       0       0       0       0       
      +0       0
  3565 ;;Total ram usage:        1 bytes
  3566 ;; Hardware stack levels used: 1
  3567 ;; Hardware stack levels required when called: 6
  3568 ;; This function calls:
  3569 ;;		_TMR0_SetInterruptHandler
  3570 ;; This function is called by:
  3571 ;;		_SYSTEM_Initialize
  3572 ;; This function uses a non-reentrant model
  3573 ;;
  3574                           
  3575                           
  3576                           ;psect for function _TMR0_Initialize
  3577  033E                     _TMR0_Initialize:
  3578  033E                     l1568:	
  3579                           ;incstack = 0
  3580                           ; Regs used in _TMR0_Initialize: [wreg+status,2+status,0+pclath+cstack]
  3581                           
  3582                           
  3583                           ;mcc_generated_files/tmr0.c: 69:     OPTION_REG = (uint8_t)((OPTION_REG & 0xC0) | (0xD7 
      +                          & 0x3F));
  3584  033E  0021               	movlb	1	; select bank1
  3585  033F  0815               	movf	21,w	;volatile
  3586  0340  39C0               	andlw	192
  3587  0341  3817               	iorlw	23
  3588  0342  0095               	movwf	21	;volatile
  3589  0343                     l1570:
  3590                           
  3591                           ;mcc_generated_files/tmr0.c: 72:     TMR0 = 0x06;
  3592  0343  3006               	movlw	6
  3593  0344  0020               	movlb	0	; select bank0
  3594  0345  0095               	movwf	21	;volatile
  3595  0346                     l1572:
  3596                           
  3597                           ;mcc_generated_files/tmr0.c: 75:     timer0ReloadVal= 6;
  3598  0346  3006               	movlw	6
  3599  0347  00CA               	movwf	??_TMR0_Initialize
  3600  0348  084A               	movf	??_TMR0_Initialize,w
  3601  0349  00BA               	movwf	_timer0ReloadVal	;volatile
  3602  034A                     l1574:
  3603                           
  3604                           ;mcc_generated_files/tmr0.c: 78:     INTCONbits.TMR0IF = 0;
  3605  034A  110B               	bcf	11,2	;volatile
  3606  034B                     l1576:
  3607                           
  3608                           ;mcc_generated_files/tmr0.c: 81:     INTCONbits.TMR0IE = 1;
  3609  034B  168B               	bsf	11,5	;volatile
  3610  034C                     l1578:
  3611                           
  3612                           ;mcc_generated_files/tmr0.c: 84:     TMR0_SetInterruptHandler(TMR0_DefaultInterruptHandl
      +                          er);
  3613  034C  3018               	movlw	low _TMR0_DefaultInterruptHandler
  3614  034D  00C8               	movwf	TMR0_SetInterruptHandler@InterruptHandler
  3615  034E  3004               	movlw	high _TMR0_DefaultInterruptHandler
  3616  034F  00C9               	movwf	TMR0_SetInterruptHandler@InterruptHandler+1
  3617  0350  3183  23DE  3183   	fcall	_TMR0_SetInterruptHandler
  3618  0353                     l114:
  3619  0353  0008               	return
  3620  0354                     __end_of_TMR0_Initialize:
  3621                           
  3622                           	psect	text14
  3623  03DE                     __ptext14:	
  3624 ;; *************** function _TMR0_SetInterruptHandler *****************
  3625 ;; Defined at:
  3626 ;;		line 125 in file "mcc_generated_files/tmr0.c"
  3627 ;; Parameters:    Size  Location     Type
  3628 ;;  InterruptHan    2    3[BANK0 ] PTR FTN()void 
  3629 ;;		 -> timer_int_callback(1), TMR0_DefaultInterruptHandler(1), 
  3630 ;; Auto vars:     Size  Location     Type
  3631 ;;		None
  3632 ;; Return value:  Size  Location     Type
  3633 ;;                  1    wreg      void 
  3634 ;; Registers used:
  3635 ;;		wreg
  3636 ;; Tracked objects:
  3637 ;;		On entry : 0/0
  3638 ;;		On exit  : 0/0
  3639 ;;		Unchanged: 0/0
  3640 ;; Data sizes:     COMMON   BANK0   BANK1   BANK2   BANK3   BANK4   BANK5   BANK6   BANK7   BANK8   BANK9  BANK10  BANK1
      +1  BANK12
  3641 ;;      Params:         0       2       0       0       0       0       0       0       0       0       0       0       
      +0       0
  3642 ;;      Locals:         0       0       0       0       0       0       0       0       0       0       0       0       
      +0       0
  3643 ;;      Temps:          0       0       0       0       0       0       0       0       0       0       0       0       
      +0       0
  3644 ;;      Totals:         0       2       0       0       0       0       0       0       0       0       0       0       
      +0       0
  3645 ;;Total ram usage:        2 bytes
  3646 ;; Hardware stack levels used: 1
  3647 ;; Hardware stack levels required when called: 5
  3648 ;; This function calls:
  3649 ;;		Nothing
  3650 ;; This function is called by:
  3651 ;;		_TMR0_Initialize
  3652 ;;		_setup
  3653 ;; This function uses a non-reentrant model
  3654 ;;
  3655                           
  3656                           
  3657                           ;psect for function _TMR0_SetInterruptHandler
  3658  03DE                     _TMR0_SetInterruptHandler:
  3659  03DE                     l1426:	
  3660                           ;incstack = 0
  3661                           ; Regs used in _TMR0_SetInterruptHandler: [wreg]
  3662                           
  3663                           
  3664                           ;mcc_generated_files/tmr0.c: 126:     TMR0_InterruptHandler = InterruptHandler;
  3665  03DE  0020               	movlb	0	; select bank0
  3666  03DF  0849               	movf	TMR0_SetInterruptHandler@InterruptHandler+1,w
  3667  03E0  00B1               	movwf	_TMR0_InterruptHandler+1
  3668  03E1  0848               	movf	TMR0_SetInterruptHandler@InterruptHandler,w
  3669  03E2  00B0               	movwf	_TMR0_InterruptHandler
  3670  03E3                     l130:
  3671  03E3  0008               	return
  3672  03E4                     __end_of_TMR0_SetInterruptHandler:
  3673                           
  3674                           	psect	text15
  3675  0252                     __ptext15:	
  3676 ;; *************** function _PIN_MANAGER_Initialize *****************
  3677 ;; Defined at:
  3678 ;;		line 55 in file "mcc_generated_files/pin_manager.c"
  3679 ;; Parameters:    Size  Location     Type
  3680 ;;		None
  3681 ;; Auto vars:     Size  Location     Type
  3682 ;;		None
  3683 ;; Return value:  Size  Location     Type
  3684 ;;                  1    wreg      void 
  3685 ;; Registers used:
  3686 ;;		wreg, status,2
  3687 ;; Tracked objects:
  3688 ;;		On entry : 0/0
  3689 ;;		On exit  : 0/0
  3690 ;;		Unchanged: 0/0
  3691 ;; Data sizes:     COMMON   BANK0   BANK1   BANK2   BANK3   BANK4   BANK5   BANK6   BANK7   BANK8   BANK9  BANK10  BANK1
      +1  BANK12
  3692 ;;      Params:         0       0       0       0       0       0       0       0       0       0       0       0       
      +0       0
  3693 ;;      Locals:         0       0       0       0       0       0       0       0       0       0       0       0       
      +0       0
  3694 ;;      Temps:          0       0       0       0       0       0       0       0       0       0       0       0       
      +0       0
  3695 ;;      Totals:         0       0       0       0       0       0       0       0       0       0       0       0       
      +0       0
  3696 ;;Total ram usage:        0 bytes
  3697 ;; Hardware stack levels used: 1
  3698 ;; Hardware stack levels required when called: 5
  3699 ;; This function calls:
  3700 ;;		Nothing
  3701 ;; This function is called by:
  3702 ;;		_SYSTEM_Initialize
  3703 ;; This function uses a non-reentrant model
  3704 ;;
  3705                           
  3706                           
  3707                           ;psect for function _PIN_MANAGER_Initialize
  3708  0252                     _PIN_MANAGER_Initialize:
  3709  0252                     l1524:	
  3710                           ;incstack = 0
  3711                           ; Regs used in _PIN_MANAGER_Initialize: [wreg+status,2]
  3712                           
  3713                           
  3714                           ;mcc_generated_files/pin_manager.c: 60:     LATA = 0x00;
  3715  0252  0022               	movlb	2	; select bank2
  3716  0253  018C               	clrf	12	;volatile
  3717  0254                     l1526:
  3718                           
  3719                           ;mcc_generated_files/pin_manager.c: 61:     LATC = 0x10;
  3720  0254  3010               	movlw	16
  3721  0255  008E               	movwf	14	;volatile
  3722  0256                     l1528:
  3723                           
  3724                           ;mcc_generated_files/pin_manager.c: 66:     TRISA = 0x07;
  3725  0256  3007               	movlw	7
  3726  0257  0021               	movlb	1	; select bank1
  3727  0258  008C               	movwf	12	;volatile
  3728  0259                     l1530:
  3729                           
  3730                           ;mcc_generated_files/pin_manager.c: 67:     TRISC = 0x21;
  3731  0259  3021               	movlw	33
  3732  025A  008E               	movwf	14	;volatile
  3733  025B                     l1532:
  3734                           
  3735                           ;mcc_generated_files/pin_manager.c: 72:     ANSELC = 0x00;
  3736  025B  0023               	movlb	3	; select bank3
  3737  025C  018E               	clrf	14	;volatile
  3738  025D                     l1534:
  3739                           
  3740                           ;mcc_generated_files/pin_manager.c: 73:     ANSELA = 0x00;
  3741  025D  018C               	clrf	12	;volatile
  3742  025E                     l1536:
  3743                           
  3744                           ;mcc_generated_files/pin_manager.c: 78:     WPUA = 0x1F;
  3745  025E  301F               	movlw	31
  3746  025F  0024               	movlb	4	; select bank4
  3747  0260  008C               	movwf	12	;volatile
  3748  0261                     l1538:
  3749                           
  3750                           ;mcc_generated_files/pin_manager.c: 79:     WPUC = 0x0F;
  3751  0261  300F               	movlw	15
  3752  0262  008E               	movwf	14	;volatile
  3753  0263                     l1540:
  3754                           
  3755                           ;mcc_generated_files/pin_manager.c: 80:     OPTION_REGbits.nWPUEN = 0;
  3756  0263  0021               	movlb	1	; select bank1
  3757  0264  1395               	bcf	21,7	;volatile
  3758  0265                     l1542:
  3759                           
  3760                           ;mcc_generated_files/pin_manager.c: 85:     ODCONA = 0x10;
  3761  0265  3010               	movlw	16
  3762  0266  0025               	movlb	5	; select bank5
  3763  0267  008C               	movwf	12	;volatile
  3764  0268                     l1544:
  3765                           
  3766                           ;mcc_generated_files/pin_manager.c: 86:     ODCONC = 0x0E;
  3767  0268  300E               	movlw	14
  3768  0269  008E               	movwf	14	;volatile
  3769  026A                     l1546:
  3770                           
  3771                           ;mcc_generated_files/pin_manager.c: 91:     SLRCONA = 0x37;
  3772  026A  3037               	movlw	55
  3773  026B  0026               	movlb	6	; select bank6
  3774  026C  008C               	movwf	12	;volatile
  3775  026D                     l1548:
  3776                           
  3777                           ;mcc_generated_files/pin_manager.c: 92:     SLRCONC = 0x3F;
  3778  026D  303F               	movlw	63
  3779  026E  008E               	movwf	14	;volatile
  3780  026F                     l1550:
  3781                           
  3782                           ;mcc_generated_files/pin_manager.c: 97:     INLVLA = 0x3F;
  3783  026F  303F               	movlw	63
  3784  0270  0027               	movlb	7	; select bank7
  3785  0271  008C               	movwf	12	;volatile
  3786  0272                     l1552:
  3787                           
  3788                           ;mcc_generated_files/pin_manager.c: 98:     INLVLC = 0x3F;
  3789  0272  303F               	movlw	63
  3790  0273  008E               	movwf	14	;volatile
  3791  0274                     l1554:
  3792                           
  3793                           ;mcc_generated_files/pin_manager.c: 107:     RXPPS = 0x15;
  3794  0274  3015               	movlw	21
  3795  0275  003C               	movlb	28	; select bank28
  3796  0276  00A4               	movwf	36	;volatile
  3797  0277                     l1556:
  3798                           
  3799                           ;mcc_generated_files/pin_manager.c: 108:     RC4PPS = 0x14;
  3800  0277  3014               	movlw	20
  3801  0278  003D               	movlb	29	; select bank29
  3802  0279  00A4               	movwf	36	;volatile
  3803  027A                     l49:
  3804  027A  0008               	return
  3805  027B                     __end_of_PIN_MANAGER_Initialize:
  3806                           
  3807                           	psect	text16
  3808  03C1                     __ptext16:	
  3809 ;; *************** function _OSCILLATOR_Initialize *****************
  3810 ;; Defined at:
  3811 ;;		line 60 in file "mcc_generated_files/mcc.c"
  3812 ;; Parameters:    Size  Location     Type
  3813 ;;		None
  3814 ;; Auto vars:     Size  Location     Type
  3815 ;;		None
  3816 ;; Return value:  Size  Location     Type
  3817 ;;                  1    wreg      void 
  3818 ;; Registers used:
  3819 ;;		wreg, status,2
  3820 ;; Tracked objects:
  3821 ;;		On entry : 0/0
  3822 ;;		On exit  : 0/0
  3823 ;;		Unchanged: 0/0
  3824 ;; Data sizes:     COMMON   BANK0   BANK1   BANK2   BANK3   BANK4   BANK5   BANK6   BANK7   BANK8   BANK9  BANK10  BANK1
      +1  BANK12
  3825 ;;      Params:         0       0       0       0       0       0       0       0       0       0       0       0       
      +0       0
  3826 ;;      Locals:         0       0       0       0       0       0       0       0       0       0       0       0       
      +0       0
  3827 ;;      Temps:          0       0       0       0       0       0       0       0       0       0       0       0       
      +0       0
  3828 ;;      Totals:         0       0       0       0       0       0       0       0       0       0       0       0       
      +0       0
  3829 ;;Total ram usage:        0 bytes
  3830 ;; Hardware stack levels used: 1
  3831 ;; Hardware stack levels required when called: 5
  3832 ;; This function calls:
  3833 ;;		Nothing
  3834 ;; This function is called by:
  3835 ;;		_SYSTEM_Initialize
  3836 ;; This function uses a non-reentrant model
  3837 ;;
  3838                           
  3839                           
  3840                           ;psect for function _OSCILLATOR_Initialize
  3841  03C1                     _OSCILLATOR_Initialize:
  3842  03C1                     l1558:	
  3843                           ;incstack = 0
  3844                           ; Regs used in _OSCILLATOR_Initialize: [wreg+status,2]
  3845                           
  3846                           
  3847                           ;mcc_generated_files/mcc.c: 63:     OSCCON = 0x70;
  3848  03C1  3070               	movlw	112
  3849  03C2  0021               	movlb	1	; select bank1
  3850  03C3  0099               	movwf	25	;volatile
  3851  03C4                     l1560:
  3852                           
  3853                           ;mcc_generated_files/mcc.c: 65:     OSCSTAT = 0x00;
  3854  03C4  019A               	clrf	26	;volatile
  3855  03C5                     l1562:
  3856                           
  3857                           ;mcc_generated_files/mcc.c: 67:     OSCTUNE = 0x00;
  3858  03C5  0198               	clrf	24	;volatile
  3859  03C6                     l1564:
  3860                           
  3861                           ;mcc_generated_files/mcc.c: 69:     BORCON = 0x00;
  3862  03C6  0022               	movlb	2	; select bank2
  3863  03C7  0196               	clrf	22	;volatile
  3864  03C8                     l91:	
  3865                           ;mcc_generated_files/mcc.c: 72:     {;mcc_generated_files/mcc.c: 73:     }
  3866                           
  3867                           
  3868                           ;mcc_generated_files/mcc.c: 71:     while(PLLR == 0)
  3869  03C8  0021               	movlb	1	; select bank1
  3870  03C9  1F1A               	btfss	26,6	;volatile
  3871  03CA  2BCC               	goto	u801
  3872  03CB  2BCD               	goto	u800
  3873  03CC                     u801:
  3874  03CC  2BC8               	goto	l91
  3875  03CD                     u800:
  3876  03CD                     l94:
  3877  03CD  0008               	return
  3878  03CE                     __end_of_OSCILLATOR_Initialize:
  3879                           
  3880                           	psect	text17
  3881  027B                     __ptext17:	
  3882 ;; *************** function _EUSART_Initialize *****************
  3883 ;; Defined at:
  3884 ;;		line 66 in file "mcc_generated_files/eusart.c"
  3885 ;; Parameters:    Size  Location     Type
  3886 ;;		None
  3887 ;; Auto vars:     Size  Location     Type
  3888 ;;		None
  3889 ;; Return value:  Size  Location     Type
  3890 ;;                  1    wreg      void 
  3891 ;; Registers used:
  3892 ;;		wreg, status,2, status,0, pclath, cstack
  3893 ;; Tracked objects:
  3894 ;;		On entry : 0/0
  3895 ;;		On exit  : 0/0
  3896 ;;		Unchanged: 0/0
  3897 ;; Data sizes:     COMMON   BANK0   BANK1   BANK2   BANK3   BANK4   BANK5   BANK6   BANK7   BANK8   BANK9  BANK10  BANK1
      +1  BANK12
  3898 ;;      Params:         0       0       0       0       0       0       0       0       0       0       0       0       
      +0       0
  3899 ;;      Locals:         0       0       0       0       0       0       0       0       0       0       0       0       
      +0       0
  3900 ;;      Temps:          0       0       0       0       0       0       0       0       0       0       0       0       
      +0       0
  3901 ;;      Totals:         0       0       0       0       0       0       0       0       0       0       0       0       
      +0       0
  3902 ;;Total ram usage:        0 bytes
  3903 ;; Hardware stack levels used: 1
  3904 ;; Hardware stack levels required when called: 6
  3905 ;; This function calls:
  3906 ;;		_EUSART_SetErrorHandler
  3907 ;;		_EUSART_SetFramingErrorHandler
  3908 ;;		_EUSART_SetOverrunErrorHandler
  3909 ;; This function is called by:
  3910 ;;		_SYSTEM_Initialize
  3911 ;; This function uses a non-reentrant model
  3912 ;;
  3913                           
  3914                           
  3915                           ;psect for function _EUSART_Initialize
  3916  027B                     _EUSART_Initialize:
  3917  027B                     l1580:	
  3918                           ;incstack = 0
  3919                           ; Regs used in _EUSART_Initialize: [wreg+status,2+status,0+pclath+cstack]
  3920                           
  3921                           
  3922                           ;mcc_generated_files/eusart.c: 71:     BAUD1CON = 0x08;
  3923  027B  3008               	movlw	8
  3924  027C  0023               	movlb	3	; select bank3
  3925  027D  009F               	movwf	31	;volatile
  3926                           
  3927                           ;mcc_generated_files/eusart.c: 74:     RC1STA = 0x90;
  3928  027E  3090               	movlw	144
  3929  027F  009D               	movwf	29	;volatile
  3930                           
  3931                           ;mcc_generated_files/eusart.c: 77:     TX1STA = 0x24;
  3932  0280  3024               	movlw	36
  3933  0281  009E               	movwf	30	;volatile
  3934                           
  3935                           ;mcc_generated_files/eusart.c: 80:     SP1BRGL = 0x82;
  3936  0282  3082               	movlw	130
  3937  0283  009B               	movwf	27	;volatile
  3938                           
  3939                           ;mcc_generated_files/eusart.c: 83:     SP1BRGH = 0x06;
  3940  0284  3006               	movlw	6
  3941  0285  009C               	movwf	28	;volatile
  3942  0286                     l1582:
  3943                           
  3944                           ;mcc_generated_files/eusart.c: 86:     EUSART_SetFramingErrorHandler(EUSART_DefaultFrami
      +                          ngErrorHandler);
  3945  0286  3000               	movlw	0
  3946  0287  0020               	movlb	0	; select bank0
  3947  0288  00C8               	movwf	EUSART_SetFramingErrorHandler@interruptHandler
  3948  0289  3000               	movlw	0
  3949  028A  00C9               	movwf	EUSART_SetFramingErrorHandler@interruptHandler+1
  3950  028B  3183  23EA  3182   	fcall	_EUSART_SetFramingErrorHandler
  3951  028E                     l1584:
  3952                           
  3953                           ;mcc_generated_files/eusart.c: 87:     EUSART_SetOverrunErrorHandler(EUSART_DefaultOverr
      +                          unErrorHandler);
  3954  028E  3000               	movlw	0
  3955  028F  0020               	movlb	0	; select bank0
  3956  0290  00C8               	movwf	EUSART_SetOverrunErrorHandler@interruptHandler
  3957  0291  3000               	movlw	0
  3958  0292  00C9               	movwf	EUSART_SetOverrunErrorHandler@interruptHandler+1
  3959  0293  3183  23E4  3182   	fcall	_EUSART_SetOverrunErrorHandler
  3960  0296                     l1586:
  3961                           
  3962                           ;mcc_generated_files/eusart.c: 88:     EUSART_SetErrorHandler(EUSART_DefaultErrorHandler
      +                          );
  3963  0296  3000               	movlw	0
  3964  0297  0020               	movlb	0	; select bank0
  3965  0298  00C8               	movwf	EUSART_SetErrorHandler@interruptHandler
  3966  0299  3000               	movlw	0
  3967  029A  00C9               	movwf	EUSART_SetErrorHandler@interruptHandler+1
  3968  029B  3183  23F0  3182   	fcall	_EUSART_SetErrorHandler
  3969  029E                     l1588:
  3970                           
  3971                           ;mcc_generated_files/eusart.c: 90:     eusartRxLastError.status = 0;
  3972  029E  0020               	movlb	0	; select bank0
  3973  029F  01B9               	clrf	_eusartRxLastError	;volatile
  3974  02A0                     l176:
  3975  02A0  0008               	return
  3976  02A1                     __end_of_EUSART_Initialize:
  3977                           
  3978                           	psect	text18
  3979  03E4                     __ptext18:	
  3980 ;; *************** function _EUSART_SetOverrunErrorHandler *****************
  3981 ;; Defined at:
  3982 ;;		line 170 in file "mcc_generated_files/eusart.c"
  3983 ;; Parameters:    Size  Location     Type
  3984 ;;  interruptHan    2    3[BANK0 ] PTR FTN()void 
  3985 ;;		 -> EUSART_DefaultOverrunErrorHandler(1), 
  3986 ;; Auto vars:     Size  Location     Type
  3987 ;;		None
  3988 ;; Return value:  Size  Location     Type
  3989 ;;                  1    wreg      void 
  3990 ;; Registers used:
  3991 ;;		wreg
  3992 ;; Tracked objects:
  3993 ;;		On entry : 0/0
  3994 ;;		On exit  : 0/0
  3995 ;;		Unchanged: 0/0
  3996 ;; Data sizes:     COMMON   BANK0   BANK1   BANK2   BANK3   BANK4   BANK5   BANK6   BANK7   BANK8   BANK9  BANK10  BANK1
      +1  BANK12
  3997 ;;      Params:         0       2       0       0       0       0       0       0       0       0       0       0       
      +0       0
  3998 ;;      Locals:         0       0       0       0       0       0       0       0       0       0       0       0       
      +0       0
  3999 ;;      Temps:          0       0       0       0       0       0       0       0       0       0       0       0       
      +0       0
  4000 ;;      Totals:         0       2       0       0       0       0       0       0       0       0       0       0       
      +0       0
  4001 ;;Total ram usage:        2 bytes
  4002 ;; Hardware stack levels used: 1
  4003 ;; Hardware stack levels required when called: 5
  4004 ;; This function calls:
  4005 ;;		Nothing
  4006 ;; This function is called by:
  4007 ;;		_EUSART_Initialize
  4008 ;; This function uses a non-reentrant model
  4009 ;;
  4010                           
  4011                           
  4012                           ;psect for function _EUSART_SetOverrunErrorHandler
  4013  03E4                     _EUSART_SetOverrunErrorHandler:
  4014  03E4                     l1430:	
  4015                           ;incstack = 0
  4016                           ; Regs used in _EUSART_SetOverrunErrorHandler: [wreg]
  4017                           
  4018                           
  4019                           ;mcc_generated_files/eusart.c: 171:     EUSART_OverrunErrorHandler = interruptHandler;
  4020  03E4  0020               	movlb	0	; select bank0
  4021  03E5  0849               	movf	EUSART_SetOverrunErrorHandler@interruptHandler+1,w
  4022  03E6  00AD               	movwf	_EUSART_OverrunErrorHandler+1
  4023  03E7  0848               	movf	EUSART_SetOverrunErrorHandler@interruptHandler,w
  4024  03E8  00AC               	movwf	_EUSART_OverrunErrorHandler
  4025  03E9                     l224:
  4026  03E9  0008               	return
  4027  03EA                     __end_of_EUSART_SetOverrunErrorHandler:
  4028                           
  4029                           	psect	text19
  4030  03EA                     __ptext19:	
  4031 ;; *************** function _EUSART_SetFramingErrorHandler *****************
  4032 ;; Defined at:
  4033 ;;		line 166 in file "mcc_generated_files/eusart.c"
  4034 ;; Parameters:    Size  Location     Type
  4035 ;;  interruptHan    2    3[BANK0 ] PTR FTN()void 
  4036 ;;		 -> EUSART_DefaultFramingErrorHandler(1), 
  4037 ;; Auto vars:     Size  Location     Type
  4038 ;;		None
  4039 ;; Return value:  Size  Location     Type
  4040 ;;                  1    wreg      void 
  4041 ;; Registers used:
  4042 ;;		wreg
  4043 ;; Tracked objects:
  4044 ;;		On entry : 0/0
  4045 ;;		On exit  : 0/0
  4046 ;;		Unchanged: 0/0
  4047 ;; Data sizes:     COMMON   BANK0   BANK1   BANK2   BANK3   BANK4   BANK5   BANK6   BANK7   BANK8   BANK9  BANK10  BANK1
      +1  BANK12
  4048 ;;      Params:         0       2       0       0       0       0       0       0       0       0       0       0       
      +0       0
  4049 ;;      Locals:         0       0       0       0       0       0       0       0       0       0       0       0       
      +0       0
  4050 ;;      Temps:          0       0       0       0       0       0       0       0       0       0       0       0       
      +0       0
  4051 ;;      Totals:         0       2       0       0       0       0       0       0       0       0       0       0       
      +0       0
  4052 ;;Total ram usage:        2 bytes
  4053 ;; Hardware stack levels used: 1
  4054 ;; Hardware stack levels required when called: 5
  4055 ;; This function calls:
  4056 ;;		Nothing
  4057 ;; This function is called by:
  4058 ;;		_EUSART_Initialize
  4059 ;; This function uses a non-reentrant model
  4060 ;;
  4061                           
  4062                           
  4063                           ;psect for function _EUSART_SetFramingErrorHandler
  4064  03EA                     _EUSART_SetFramingErrorHandler:
  4065  03EA                     l1428:	
  4066                           ;incstack = 0
  4067                           ; Regs used in _EUSART_SetFramingErrorHandler: [wreg]
  4068                           
  4069                           
  4070                           ;mcc_generated_files/eusart.c: 167:     EUSART_FramingErrorHandler = interruptHandler;
  4071  03EA  0020               	movlb	0	; select bank0
  4072  03EB  0849               	movf	EUSART_SetFramingErrorHandler@interruptHandler+1,w
  4073  03EC  00AF               	movwf	_EUSART_FramingErrorHandler+1
  4074  03ED  0848               	movf	EUSART_SetFramingErrorHandler@interruptHandler,w
  4075  03EE  00AE               	movwf	_EUSART_FramingErrorHandler
  4076  03EF                     l221:
  4077  03EF  0008               	return
  4078  03F0                     __end_of_EUSART_SetFramingErrorHandler:
  4079                           
  4080                           	psect	text20
  4081  03F0                     __ptext20:	
  4082 ;; *************** function _EUSART_SetErrorHandler *****************
  4083 ;; Defined at:
  4084 ;;		line 174 in file "mcc_generated_files/eusart.c"
  4085 ;; Parameters:    Size  Location     Type
  4086 ;;  interruptHan    2    3[BANK0 ] PTR FTN()void 
  4087 ;;		 -> EUSART_DefaultErrorHandler(1), 
  4088 ;; Auto vars:     Size  Location     Type
  4089 ;;		None
  4090 ;; Return value:  Size  Location     Type
  4091 ;;                  1    wreg      void 
  4092 ;; Registers used:
  4093 ;;		wreg
  4094 ;; Tracked objects:
  4095 ;;		On entry : 0/0
  4096 ;;		On exit  : 0/0
  4097 ;;		Unchanged: 0/0
  4098 ;; Data sizes:     COMMON   BANK0   BANK1   BANK2   BANK3   BANK4   BANK5   BANK6   BANK7   BANK8   BANK9  BANK10  BANK1
      +1  BANK12
  4099 ;;      Params:         0       2       0       0       0       0       0       0       0       0       0       0       
      +0       0
  4100 ;;      Locals:         0       0       0       0       0       0       0       0       0       0       0       0       
      +0       0
  4101 ;;      Temps:          0       0       0       0       0       0       0       0       0       0       0       0       
      +0       0
  4102 ;;      Totals:         0       2       0       0       0       0       0       0       0       0       0       0       
      +0       0
  4103 ;;Total ram usage:        2 bytes
  4104 ;; Hardware stack levels used: 1
  4105 ;; Hardware stack levels required when called: 5
  4106 ;; This function calls:
  4107 ;;		Nothing
  4108 ;; This function is called by:
  4109 ;;		_EUSART_Initialize
  4110 ;; This function uses a non-reentrant model
  4111 ;;
  4112                           
  4113                           
  4114                           ;psect for function _EUSART_SetErrorHandler
  4115  03F0                     _EUSART_SetErrorHandler:
  4116  03F0                     l1432:	
  4117                           ;incstack = 0
  4118                           ; Regs used in _EUSART_SetErrorHandler: [wreg]
  4119                           
  4120                           
  4121                           ;mcc_generated_files/eusart.c: 175:     EUSART_ErrorHandler = interruptHandler;
  4122  03F0  0020               	movlb	0	; select bank0
  4123  03F1  0849               	movf	EUSART_SetErrorHandler@interruptHandler+1,w
  4124  03F2  00AB               	movwf	_EUSART_ErrorHandler+1
  4125  03F3  0848               	movf	EUSART_SetErrorHandler@interruptHandler,w
  4126  03F4  00AA               	movwf	_EUSART_ErrorHandler
  4127  03F5                     l227:
  4128  03F5  0008               	return
  4129  03F6                     __end_of_EUSART_SetErrorHandler:
  4130                           
  4131                           	psect	intentry
  4132  0004                     __pintentry:	
  4133 ;; *************** function _INTERRUPT_InterruptManager *****************
  4134 ;; Defined at:
  4135 ;;		line 52 in file "mcc_generated_files/interrupt_manager.c"
  4136 ;; Parameters:    Size  Location     Type
  4137 ;;		None
  4138 ;; Auto vars:     Size  Location     Type
  4139 ;;		None
  4140 ;; Return value:  Size  Location     Type
  4141 ;;                  1    wreg      void 
  4142 ;; Registers used:
  4143 ;;		wreg, fsr0l, fsr0h, status,2, status,0, pclath, cstack
  4144 ;; Tracked objects:
  4145 ;;		On entry : 0/0
  4146 ;;		On exit  : 0/0
  4147 ;;		Unchanged: 0/0
  4148 ;; Data sizes:     COMMON   BANK0   BANK1   BANK2   BANK3   BANK4   BANK5   BANK6   BANK7   BANK8   BANK9  BANK10  BANK1
      +1  BANK12
  4149 ;;      Params:         0       0       0       0       0       0       0       0       0       0       0       0       
      +0       0
  4150 ;;      Locals:         0       0       0       0       0       0       0       0       0       0       0       0       
      +0       0
  4151 ;;      Temps:          0       0       0       0       0       0       0       0       0       0       0       0       
      +0       0
  4152 ;;      Totals:         0       0       0       0       0       0       0       0       0       0       0       0       
      +0       0
  4153 ;;Total ram usage:        0 bytes
  4154 ;; Hardware stack levels used: 1
  4155 ;; Hardware stack levels required when called: 4
  4156 ;; This function calls:
  4157 ;;		_TMR0_ISR
  4158 ;; This function is called by:
  4159 ;;		Interrupt level 1
  4160 ;; This function uses a non-reentrant model
  4161 ;;
  4162                           
  4163  0004                     _INTERRUPT_InterruptManager:
  4164                           
  4165                           ;incstack = 0
  4166  0004  147E               	bsf	int$flags,0	;set compiler interrupt flag (level 1)
  4167                           
  4168                           ; Regs used in _INTERRUPT_InterruptManager: [wreg-fsr0h+status,2+status,0+pclath+cstack]
  4169  0005  3180               	pagesel	$
  4170  0006                     i1l1756:
  4171                           
  4172                           ;mcc_generated_files/interrupt_manager.c: 55:     if(INTCONbits.TMR0IE == 1 && INTCONbit
      +                          s.TMR0IF == 1)
  4173  0006  1E8B               	btfss	11,5	;volatile
  4174  0007  2809               	goto	u95_21
  4175  0008  280A               	goto	u95_20
  4176  0009                     u95_21:
  4177  0009  2811               	goto	i1l63
  4178  000A                     u95_20:
  4179  000A                     i1l1758:
  4180  000A  1D0B               	btfss	11,2	;volatile
  4181  000B  280D               	goto	u96_21
  4182  000C  280E               	goto	u96_20
  4183  000D                     u96_21:
  4184  000D  2811               	goto	i1l63
  4185  000E                     u96_20:
  4186  000E                     i1l1760:
  4187                           
  4188                           ;mcc_generated_files/interrupt_manager.c: 56:     {;mcc_generated_files/interrupt_manage
      +                          r.c: 57:         TMR0_ISR();
  4189  000E  3183  23B1  3180   	fcall	_TMR0_ISR
  4190  0011                     i1l63:	
  4191                           ;mcc_generated_files/interrupt_manager.c: 58:     }
  4192                           
  4193  0011  107E               	bcf	int$flags,0	;clear compiler interrupt flag (level 1)
  4194  0012  0009               	retfie
  4195  0013                     __end_of_INTERRUPT_InterruptManager:
  4196                           
  4197                           	psect	text22
  4198  03B1                     __ptext22:	
  4199 ;; *************** function _TMR0_ISR *****************
  4200 ;; Defined at:
  4201 ;;		line 108 in file "mcc_generated_files/tmr0.c"
  4202 ;; Parameters:    Size  Location     Type
  4203 ;;		None
  4204 ;; Auto vars:     Size  Location     Type
  4205 ;;		None
  4206 ;; Return value:  Size  Location     Type
  4207 ;;                  1    wreg      void 
  4208 ;; Registers used:
  4209 ;;		wreg, fsr0l, fsr0h, status,2, status,0, pclath, cstack
  4210 ;; Tracked objects:
  4211 ;;		On entry : 0/0
  4212 ;;		On exit  : 0/0
  4213 ;;		Unchanged: 0/0
  4214 ;; Data sizes:     COMMON   BANK0   BANK1   BANK2   BANK3   BANK4   BANK5   BANK6   BANK7   BANK8   BANK9  BANK10  BANK1
      +1  BANK12
  4215 ;;      Params:         0       0       0       0       0       0       0       0       0       0       0       0       
      +0       0
  4216 ;;      Locals:         0       0       0       0       0       0       0       0       0       0       0       0       
      +0       0
  4217 ;;      Temps:          0       0       0       0       0       0       0       0       0       0       0       0       
      +0       0
  4218 ;;      Totals:         0       0       0       0       0       0       0       0       0       0       0       0       
      +0       0
  4219 ;;Total ram usage:        0 bytes
  4220 ;; Hardware stack levels used: 1
  4221 ;; Hardware stack levels required when called: 3
  4222 ;; This function calls:
  4223 ;;		Absolute function
  4224 ;;		_TMR0_DefaultInterruptHandler
  4225 ;;		_timer_int_callback
  4226 ;; This function is called by:
  4227 ;;		_INTERRUPT_InterruptManager
  4228 ;; This function uses a non-reentrant model
  4229 ;;
  4230                           
  4231                           
  4232                           ;psect for function _TMR0_ISR
  4233  03B1                     _TMR0_ISR:
  4234  03B1                     i1l1660:	
  4235                           ;incstack = 0
  4236                           ; Regs used in _TMR0_ISR: [wreg-fsr0h+status,2+status,0+pclath+cstack]
  4237                           
  4238                           
  4239                           ;mcc_generated_files/tmr0.c: 112:     INTCONbits.TMR0IF = 0;
  4240  03B1  110B               	bcf	11,2	;volatile
  4241  03B2                     i1l1662:
  4242                           
  4243                           ;mcc_generated_files/tmr0.c: 114:     TMR0 = timer0ReloadVal;
  4244  03B2  0020               	movlb	0	; select bank0
  4245  03B3  083A               	movf	_timer0ReloadVal,w	;volatile
  4246  03B4  0095               	movwf	21	;volatile
  4247  03B5                     i1l1664:
  4248                           
  4249                           ;mcc_generated_files/tmr0.c: 116:     if(TMR0_InterruptHandler)
  4250  03B5  0830               	movf	_TMR0_InterruptHandler,w
  4251  03B6  0431               	iorwf	_TMR0_InterruptHandler+1,w
  4252  03B7  1903               	btfsc	3,2
  4253  03B8  2BBA               	goto	u90_21
  4254  03B9  2BBB               	goto	u90_20
  4255  03BA                     u90_21:
  4256  03BA  2BC0               	goto	i1l127
  4257  03BB                     u90_20:
  4258  03BB                     i1l1666:
  4259                           
  4260                           ;mcc_generated_files/tmr0.c: 117:     {;mcc_generated_files/tmr0.c: 118:         TMR0_In
      +                          terruptHandler();
  4261  03BB  0831               	movf	_TMR0_InterruptHandler+1,w
  4262  03BC  008A               	movwf	10
  4263  03BD  0830               	movf	_TMR0_InterruptHandler,w
  4264  03BE  000A               	callw
  4265  03BF  3183               	pagesel	$
  4266  03C0                     i1l127:
  4267  03C0  0008               	return
  4268  03C1                     __end_of_TMR0_ISR:
  4269                           
  4270                           	psect	text23
  4271  0418                     __ptext23:	
  4272 ;; *************** function _TMR0_DefaultInterruptHandler *****************
  4273 ;; Defined at:
  4274 ;;		line 129 in file "mcc_generated_files/tmr0.c"
  4275 ;; Parameters:    Size  Location     Type
  4276 ;;		None
  4277 ;; Auto vars:     Size  Location     Type
  4278 ;;		None
  4279 ;; Return value:  Size  Location     Type
  4280 ;;                  1    wreg      void 
  4281 ;; Registers used:
  4282 ;;		None
  4283 ;; Tracked objects:
  4284 ;;		On entry : 0/0
  4285 ;;		On exit  : 0/0
  4286 ;;		Unchanged: 0/0
  4287 ;; Data sizes:     COMMON   BANK0   BANK1   BANK2   BANK3   BANK4   BANK5   BANK6   BANK7   BANK8   BANK9  BANK10  BANK1
      +1  BANK12
  4288 ;;      Params:         0       0       0       0       0       0       0       0       0       0       0       0       
      +0       0
  4289 ;;      Locals:         0       0       0       0       0       0       0       0       0       0       0       0       
      +0       0
  4290 ;;      Temps:          0       0       0       0       0       0       0       0       0       0       0       0       
      +0       0
  4291 ;;      Totals:         0       0       0       0       0       0       0       0       0       0       0       0       
      +0       0
  4292 ;;Total ram usage:        0 bytes
  4293 ;; Hardware stack levels used: 1
  4294 ;; This function calls:
  4295 ;;		Nothing
  4296 ;; This function is called by:
  4297 ;;		_TMR0_Initialize
  4298 ;;		_TMR0_ISR
  4299 ;; This function uses a non-reentrant model
  4300 ;;
  4301                           
  4302                           
  4303                           ;psect for function _TMR0_DefaultInterruptHandler
  4304  0418                     _TMR0_DefaultInterruptHandler:
  4305  0418                     i1l133:	
  4306                           ;incstack = 0
  4307                           ; Regs used in _TMR0_DefaultInterruptHandler: []
  4308                           
  4309  0418  0008               	return
  4310  0419                     __end_of_TMR0_DefaultInterruptHandler:
  4311                           
  4312                           	psect	text24
  4313  01E7                     __ptext24:	
  4314 ;; *************** function _timer_int_callback *****************
  4315 ;; Defined at:
  4316 ;;		line 168 in file "main.c"
  4317 ;; Parameters:    Size  Location     Type
  4318 ;;		None
  4319 ;; Auto vars:     Size  Location     Type
  4320 ;;  code            1    2[BANK0 ] unsigned char 
  4321 ;;  i               1    1[BANK0 ] char 
  4322 ;; Return value:  Size  Location     Type
  4323 ;;                  1    wreg      void 
  4324 ;; Registers used:
  4325 ;;		wreg, fsr0l, fsr0h, status,2, status,0, pclath, cstack
  4326 ;; Tracked objects:
  4327 ;;		On entry : 0/0
  4328 ;;		On exit  : 0/0
  4329 ;;		Unchanged: 0/0
  4330 ;; Data sizes:     COMMON   BANK0   BANK1   BANK2   BANK3   BANK4   BANK5   BANK6   BANK7   BANK8   BANK9  BANK10  BANK1
      +1  BANK12
  4331 ;;      Params:         0       0       0       0       0       0       0       0       0       0       0       0       
      +0       0
  4332 ;;      Locals:         0       2       0       0       0       0       0       0       0       0       0       0       
      +0       0
  4333 ;;      Temps:          0       1       0       0       0       0       0       0       0       0       0       0       
      +0       0
  4334 ;;      Totals:         0       3       0       0       0       0       0       0       0       0       0       0       
      +0       0
  4335 ;;Total ram usage:        3 bytes
  4336 ;; Hardware stack levels used: 1
  4337 ;; Hardware stack levels required when called: 2
  4338 ;; This function calls:
  4339 ;;		_scan_row
  4340 ;; This function is called by:
  4341 ;;		_setup
  4342 ;;		_TMR0_ISR
  4343 ;; This function uses a non-reentrant model
  4344 ;;
  4345                           
  4346                           
  4347                           ;psect for function _timer_int_callback
  4348  01E7                     _timer_int_callback:
  4349  01E7                     i1l1614:	
  4350                           ;incstack = 0
  4351                           ; Regs used in _timer_int_callback: [wreg-fsr0h+status,2+status,0+pclath+cstack]
  4352                           
  4353  01E7                     i1l1616:
  4354                           
  4355                           ;main.c: 171:  static uint8_t repeat = 0;;main.c: 172:  int8_t i;;main.c: 174:  for (i =
      +                           1; i <= 4; i++) {
  4356  01E7  0020               	movlb	0	; select bank0
  4357  01E8  01C6               	clrf	timer_int_callback@i
  4358  01E9  0AC6               	incf	timer_int_callback@i,f
  4359  01EA                     i1l1622:
  4360                           
  4361                           ;main.c: 175:   code = scan_row(i);
  4362  01EA  0846               	movf	timer_int_callback@i,w
  4363  01EB  3180  20C9  3181   	fcall	_scan_row
  4364  01EE  0020               	movlb	0	; select bank0
  4365  01EF  00C5               	movwf	??_timer_int_callback
  4366  01F0  0845               	movf	??_timer_int_callback,w
  4367  01F1  00C7               	movwf	timer_int_callback@code
  4368  01F2                     i1l1624:
  4369                           
  4370                           ;main.c: 176:   if (code != 0) break;
  4371  01F2  0847               	movf	timer_int_callback@code,w
  4372  01F3  1903               	btfsc	3,2
  4373  01F4  29F6               	goto	u84_21
  4374  01F5  29F7               	goto	u84_20
  4375  01F6                     u84_21:
  4376  01F6  29F8               	goto	i1l1628
  4377  01F7                     u84_20:
  4378  01F7  2A03               	goto	i1l1632
  4379  01F8                     i1l1628:
  4380                           
  4381                           ;main.c: 177:  }
  4382  01F8  3001               	movlw	1
  4383  01F9  00C5               	movwf	??_timer_int_callback
  4384  01FA  0845               	movf	??_timer_int_callback,w
  4385  01FB  07C6               	addwf	timer_int_callback@i,f
  4386  01FC                     i1l1630:
  4387  01FC  0846               	movf	timer_int_callback@i,w
  4388  01FD  3A80               	xorlw	128
  4389  01FE  3E7B               	addlw	-133
  4390  01FF  1C03               	skipc
  4391  0200  2A02               	goto	u85_21
  4392  0201  2A03               	goto	u85_20
  4393  0202                     u85_21:
  4394  0202  29EA               	goto	i1l1622
  4395  0203                     u85_20:
  4396  0203                     i1l1632:
  4397                           
  4398                           ;main.c: 178:  if (code != 0) {
  4399  0203  0847               	movf	timer_int_callback@code,w
  4400  0204  1903               	btfsc	3,2
  4401  0205  2A07               	goto	u86_21
  4402  0206  2A08               	goto	u86_20
  4403  0207                     u86_21:
  4404  0207  2A22               	goto	i1l1644
  4405  0208                     u86_20:
  4406  0208                     i1l1634:
  4407                           
  4408                           ;main.c: 179:   if (code == last_code) {
  4409  0208  0847               	movf	timer_int_callback@code,w
  4410  0209  0638               	xorwf	_last_code,w	;volatile
  4411  020A  1D03               	skipz
  4412  020B  2A0D               	goto	u87_21
  4413  020C  2A0E               	goto	u87_20
  4414  020D                     u87_21:
  4415  020D  2A1C               	goto	i1l1640
  4416  020E                     u87_20:
  4417  020E                     i1l1636:
  4418                           
  4419                           ;main.c: 180:    repeat++;
  4420  020E  3001               	movlw	1
  4421  020F  00C5               	movwf	??_timer_int_callback
  4422  0210  0845               	movf	??_timer_int_callback,w
  4423  0211  07B2               	addwf	timer_int_callback@repeat,f
  4424                           
  4425                           ;main.c: 181:    if (repeat == 1) {
  4426  0212  0332               	decf	timer_int_callback@repeat,w
  4427  0213  1D03               	btfss	3,2
  4428  0214  2A16               	goto	u88_21
  4429  0215  2A17               	goto	u88_20
  4430  0216                     u88_21:
  4431  0216  2A25               	goto	i1l367
  4432  0217                     u88_20:
  4433  0217                     i1l1638:
  4434                           
  4435                           ;main.c: 182:     key_code = code;
  4436  0217  0847               	movf	timer_int_callback@code,w
  4437  0218  00C5               	movwf	??_timer_int_callback
  4438  0219  0845               	movf	??_timer_int_callback,w
  4439  021A  00B7               	movwf	_key_code	;volatile
  4440  021B  2A25               	goto	i1l368
  4441  021C                     i1l1640:
  4442                           
  4443                           ;main.c: 185:    repeat = 0;
  4444  021C  01B2               	clrf	timer_int_callback@repeat
  4445  021D                     i1l1642:
  4446                           
  4447                           ;main.c: 186:    last_code = code;
  4448  021D  0847               	movf	timer_int_callback@code,w
  4449  021E  00C5               	movwf	??_timer_int_callback
  4450  021F  0845               	movf	??_timer_int_callback,w
  4451  0220  00B8               	movwf	_last_code	;volatile
  4452  0221  2A25               	goto	i1l368
  4453  0222                     i1l1644:
  4454                           
  4455                           ;main.c: 189:         repeat = 0;
  4456  0222  01B2               	clrf	timer_int_callback@repeat
  4457                           
  4458                           ;main.c: 190:         last_code = 0;
  4459  0223  01B8               	clrf	_last_code	;volatile
  4460  0224  2A25               	goto	i1l368
  4461  0225                     i1l367:	
  4462                           ;main.c: 191:     }
  4463                           
  4464  0225                     i1l368:
  4465  0225  0008               	return
  4466  0226                     __end_of_timer_int_callback:
  4467                           
  4468                           	psect	text25
  4469  00C9                     __ptext25:	
  4470 ;; *************** function _scan_row *****************
  4471 ;; Defined at:
  4472 ;;		line 138 in file "main.c"
  4473 ;; Parameters:    Size  Location     Type
  4474 ;;  col             1    wreg     char 
  4475 ;; Auto vars:     Size  Location     Type
  4476 ;;  col             1   13[COMMON] char 
  4477 ;;  row             1   12[COMMON] unsigned char 
  4478 ;; Return value:  Size  Location     Type
  4479 ;;                  1    wreg      unsigned char 
  4480 ;; Registers used:
  4481 ;;		wreg, fsr0l, fsr0h, status,2, status,0, pclath, cstack
  4482 ;; Tracked objects:
  4483 ;;		On entry : 0/0
  4484 ;;		On exit  : 0/0
  4485 ;;		Unchanged: 0/0
  4486 ;; Data sizes:     COMMON   BANK0   BANK1   BANK2   BANK3   BANK4   BANK5   BANK6   BANK7   BANK8   BANK9  BANK10  BANK1
      +1  BANK12
  4487 ;;      Params:         0       0       0       0       0       0       0       0       0       0       0       0       
      +0       0
  4488 ;;      Locals:         2       0       0       0       0       0       0       0       0       0       0       0       
      +0       0
  4489 ;;      Temps:          6       0       0       0       0       0       0       0       0       0       0       0       
      +0       0
  4490 ;;      Totals:         8       0       0       0       0       0       0       0       0       0       0       0       
      +0       0
  4491 ;;Total ram usage:        8 bytes
  4492 ;; Hardware stack levels used: 1
  4493 ;; Hardware stack levels required when called: 1
  4494 ;; This function calls:
  4495 ;;		___wmul
  4496 ;; This function is called by:
  4497 ;;		_timer_int_callback
  4498 ;; This function uses a non-reentrant model
  4499 ;;
  4500                           
  4501                           
  4502                           ;psect for function _scan_row
  4503  00C9                     _scan_row:
  4504                           
  4505                           ;incstack = 0
  4506                           ; Regs used in _scan_row: [wreg-fsr0h+status,2+status,0+pclath+cstack]
  4507                           ;scan_row@col stored from wreg
  4508  00C9  00FD               	movwf	scan_row@col
  4509  00CA                     i1l1482:
  4510                           
  4511                           ;main.c: 138: static uint8_t scan_row(int8_t col);main.c: 139: {;main.c: 140:  uint8_t r
      +                          ow = 0;
  4512  00CA  01FC               	clrf	scan_row@row
  4513  00CB                     i1l1484:
  4514                           
  4515                           ;main.c: 142:  if (col == 1) do { LATCbits.LATC1 = 0; } while(0);
  4516  00CB  037D               	decf	scan_row@col,w
  4517  00CC  1D03               	btfss	3,2
  4518  00CD  28CF               	goto	u66_21
  4519  00CE  28D0               	goto	u66_20
  4520  00CF                     u66_21:
  4521  00CF  28D3               	goto	i1l1486
  4522  00D0                     u66_20:
  4523  00D0                     i1l317:
  4524  00D0  0022               	movlb	2	; select bank2
  4525  00D1  108E               	bcf	14,1	;volatile
  4526  00D2  28ED               	goto	i1l319
  4527  00D3                     i1l1486:
  4528  00D3  3002               	movlw	2
  4529  00D4  067D               	xorwf	scan_row@col,w
  4530  00D5  1D03               	btfss	3,2
  4531  00D6  28D8               	goto	u67_21
  4532  00D7  28D9               	goto	u67_20
  4533  00D8                     u67_21:
  4534  00D8  28DC               	goto	i1l1488
  4535  00D9                     u67_20:
  4536  00D9                     i1l321:
  4537  00D9  0022               	movlb	2	; select bank2
  4538  00DA  110E               	bcf	14,2	;volatile
  4539  00DB  28ED               	goto	i1l319
  4540  00DC                     i1l1488:
  4541  00DC  3003               	movlw	3
  4542  00DD  067D               	xorwf	scan_row@col,w
  4543  00DE  1D03               	btfss	3,2
  4544  00DF  28E1               	goto	u68_21
  4545  00E0  28E2               	goto	u68_20
  4546  00E1                     u68_21:
  4547  00E1  28E5               	goto	i1l1490
  4548  00E2                     u68_20:
  4549  00E2                     i1l325:
  4550  00E2  0022               	movlb	2	; select bank2
  4551  00E3  118E               	bcf	14,3	;volatile
  4552  00E4  28ED               	goto	i1l319
  4553  00E5                     i1l1490:
  4554  00E5  3004               	movlw	4
  4555  00E6  067D               	xorwf	scan_row@col,w
  4556  00E7  1D03               	btfss	3,2
  4557  00E8  28EA               	goto	u69_21
  4558  00E9  28EB               	goto	u69_20
  4559  00EA                     u69_21:
  4560  00EA  28ED               	goto	i1l319
  4561  00EB                     u69_20:
  4562  00EB                     i1l329:
  4563  00EB  0022               	movlb	2	; select bank2
  4564  00EC  120C               	bcf	12,4	;volatile
  4565  00ED                     i1l319:
  4566                           
  4567                           ;main.c: 147:  if (PORTCbits.RC0 == 0) {
  4568  00ED  0020               	movlb	0	; select bank0
  4569  00EE  180E               	btfsc	14,0	;volatile
  4570  00EF  28F1               	goto	u70_21
  4571  00F0  28F2               	goto	u70_20
  4572  00F1                     u70_21:
  4573  00F1  28F5               	goto	i1l331
  4574  00F2                     u70_20:
  4575  00F2                     i1l1492:
  4576                           
  4577                           ;main.c: 148:   row = 1;
  4578  00F2  01FC               	clrf	scan_row@row
  4579  00F3  0AFC               	incf	scan_row@row,f
  4580                           
  4581                           ;main.c: 149:  } else if (PORTAbits.RA3 == 0) {
  4582  00F4  2919               	goto	i1l1502
  4583  00F5                     i1l331:
  4584  00F5  198C               	btfsc	12,3	;volatile
  4585  00F6  28F8               	goto	u71_21
  4586  00F7  28F9               	goto	u71_20
  4587  00F8                     u71_21:
  4588  00F8  28FE               	goto	i1l333
  4589  00F9                     u71_20:
  4590  00F9                     i1l1494:
  4591                           
  4592                           ;main.c: 150:   row = 2;
  4593  00F9  3002               	movlw	2
  4594  00FA  00F6               	movwf	??_scan_row
  4595  00FB  0876               	movf	??_scan_row,w
  4596  00FC  00FC               	movwf	scan_row@row
  4597                           
  4598                           ;main.c: 151:  } else if (PORTAbits.RA2 == 0) {
  4599  00FD  2919               	goto	i1l1502
  4600  00FE                     i1l333:
  4601  00FE  190C               	btfsc	12,2	;volatile
  4602  00FF  2901               	goto	u72_21
  4603  0100  2902               	goto	u72_20
  4604  0101                     u72_21:
  4605  0101  2907               	goto	i1l335
  4606  0102                     u72_20:
  4607  0102                     i1l1496:
  4608                           
  4609                           ;main.c: 152:   row = 3;
  4610  0102  3003               	movlw	3
  4611  0103  00F6               	movwf	??_scan_row
  4612  0104  0876               	movf	??_scan_row,w
  4613  0105  00FC               	movwf	scan_row@row
  4614                           
  4615                           ;main.c: 153:  } else if (PORTAbits.RA1 == 0) {
  4616  0106  2919               	goto	i1l1502
  4617  0107                     i1l335:
  4618  0107  188C               	btfsc	12,1	;volatile
  4619  0108  290A               	goto	u73_21
  4620  0109  290B               	goto	u73_20
  4621  010A                     u73_21:
  4622  010A  2910               	goto	i1l337
  4623  010B                     u73_20:
  4624  010B                     i1l1498:
  4625                           
  4626                           ;main.c: 154:   row = 4;
  4627  010B  3004               	movlw	4
  4628  010C  00F6               	movwf	??_scan_row
  4629  010D  0876               	movf	??_scan_row,w
  4630  010E  00FC               	movwf	scan_row@row
  4631                           
  4632                           ;main.c: 155:  } else if (PORTAbits.RA0 == 0) {
  4633  010F  2919               	goto	i1l1502
  4634  0110                     i1l337:
  4635  0110  180C               	btfsc	12,0	;volatile
  4636  0111  2913               	goto	u74_21
  4637  0112  2914               	goto	u74_20
  4638  0113                     u74_21:
  4639  0113  2919               	goto	i1l334
  4640  0114                     u74_20:
  4641  0114                     i1l1500:
  4642                           
  4643                           ;main.c: 156:   row = 5;
  4644  0114  3005               	movlw	5
  4645  0115  00F6               	movwf	??_scan_row
  4646  0116  0876               	movf	??_scan_row,w
  4647  0117  00FC               	movwf	scan_row@row
  4648  0118  2919               	goto	i1l1502
  4649  0119                     i1l334:
  4650  0119                     i1l1502:
  4651                           
  4652                           ;main.c: 158:  if (col == 1) do { LATCbits.LATC1 = 1; } while(0);
  4653  0119  037D               	decf	scan_row@col,w
  4654  011A  1D03               	btfss	3,2
  4655  011B  291D               	goto	u75_21
  4656  011C  291E               	goto	u75_20
  4657  011D                     u75_21:
  4658  011D  2921               	goto	i1l1504
  4659  011E                     u75_20:
  4660  011E                     i1l341:
  4661  011E  0022               	movlb	2	; select bank2
  4662  011F  148E               	bsf	14,1	;volatile
  4663  0120  293B               	goto	i1l1510
  4664  0121                     i1l1504:
  4665  0121  3002               	movlw	2
  4666  0122  067D               	xorwf	scan_row@col,w
  4667  0123  1D03               	btfss	3,2
  4668  0124  2926               	goto	u76_21
  4669  0125  2927               	goto	u76_20
  4670  0126                     u76_21:
  4671  0126  292A               	goto	i1l1506
  4672  0127                     u76_20:
  4673  0127                     i1l345:
  4674  0127  0022               	movlb	2	; select bank2
  4675  0128  150E               	bsf	14,2	;volatile
  4676  0129  293B               	goto	i1l1510
  4677  012A                     i1l1506:
  4678  012A  3003               	movlw	3
  4679  012B  067D               	xorwf	scan_row@col,w
  4680  012C  1D03               	btfss	3,2
  4681  012D  292F               	goto	u77_21
  4682  012E  2930               	goto	u77_20
  4683  012F                     u77_21:
  4684  012F  2933               	goto	i1l1508
  4685  0130                     u77_20:
  4686  0130                     i1l349:
  4687  0130  0022               	movlb	2	; select bank2
  4688  0131  158E               	bsf	14,3	;volatile
  4689  0132  293B               	goto	i1l1510
  4690  0133                     i1l1508:
  4691  0133  3004               	movlw	4
  4692  0134  067D               	xorwf	scan_row@col,w
  4693  0135  1D03               	btfss	3,2
  4694  0136  2938               	goto	u78_21
  4695  0137  2939               	goto	u78_20
  4696  0138                     u78_21:
  4697  0138  293B               	goto	i1l1510
  4698  0139                     u78_20:
  4699  0139                     i1l353:
  4700  0139  0022               	movlb	2	; select bank2
  4701  013A  160C               	bsf	12,4	;volatile
  4702  013B                     i1l1510:
  4703                           
  4704                           ;main.c: 162:  return key[col][row];
  4705  013B  087D               	movf	scan_row@col,w
  4706  013C  00F6               	movwf	??_scan_row
  4707  013D  01F7               	clrf	??_scan_row+1
  4708  013E  0876               	movf	??_scan_row,w
  4709  013F  00F0               	movwf	___wmul@multiplier
  4710  0140  0877               	movf	??_scan_row+1,w
  4711  0141  00F1               	movwf	___wmul@multiplier+1
  4712  0142  3006               	movlw	6
  4713  0143  00F2               	movwf	___wmul@multiplicand
  4714  0144  3000               	movlw	0
  4715  0145  00F3               	movwf	___wmul@multiplicand+1
  4716  0146  3183  2308  3180   	fcall	___wmul
  4717  0149  30A1               	movlw	low (_key| (0+32768))
  4718  014A  00F8               	movwf	??_scan_row+2
  4719  014B  3082               	movlw	high (_key| (0+32768))
  4720  014C  00F9               	movwf	??_scan_row+3
  4721  014D  0870               	movf	?___wmul,w
  4722  014E  0778               	addwf	??_scan_row+2,w
  4723  014F  00FA               	movwf	??_scan_row+4
  4724  0150  0871               	movf	?___wmul+1,w
  4725  0151  3D79               	addwfc	??_scan_row+3,w
  4726  0152  00FB               	movwf	??_scan_row+5
  4727  0153  087C               	movf	scan_row@row,w
  4728  0154  077A               	addwf	??_scan_row+4,w
  4729  0155  0084               	movwf	4
  4730  0156  087B               	movf	??_scan_row+5,w
  4731  0157  1803               	skipnc
  4732  0158  0A7B               	incf	??_scan_row+5,w
  4733  0159  0085               	movwf	5
  4734  015A  0800               	movf	0,w	;code access
  4735  015B                     i1l355:
  4736  015B  0008               	return
  4737  015C                     __end_of_scan_row:
  4738                           
  4739                           	psect	text26
  4740  0308                     __ptext26:	
  4741 ;; *************** function ___wmul *****************
  4742 ;; Defined at:
  4743 ;;		line 15 in file "C:\Program Files\Microchip\xc8\v2.32\pic\sources\c99\common\Umul16.c"
  4744 ;; Parameters:    Size  Location     Type
  4745 ;;  multiplier      2    0[COMMON] unsigned int 
  4746 ;;  multiplicand    2    2[COMMON] unsigned int 
  4747 ;; Auto vars:     Size  Location     Type
  4748 ;;  product         2    4[COMMON] unsigned int 
  4749 ;; Return value:  Size  Location     Type
  4750 ;;                  2    0[COMMON] unsigned int 
  4751 ;; Registers used:
  4752 ;;		wreg, status,2, status,0
  4753 ;; Tracked objects:
  4754 ;;		On entry : 0/0
  4755 ;;		On exit  : 0/0
  4756 ;;		Unchanged: 0/0
  4757 ;; Data sizes:     COMMON   BANK0   BANK1   BANK2   BANK3   BANK4   BANK5   BANK6   BANK7   BANK8   BANK9  BANK10  BANK1
      +1  BANK12
  4758 ;;      Params:         4       0       0       0       0       0       0       0       0       0       0       0       
      +0       0
  4759 ;;      Locals:         2       0       0       0       0       0       0       0       0       0       0       0       
      +0       0
  4760 ;;      Temps:          0       0       0       0       0       0       0       0       0       0       0       0       
      +0       0
  4761 ;;      Totals:         6       0       0       0       0       0       0       0       0       0       0       0       
      +0       0
  4762 ;;Total ram usage:        6 bytes
  4763 ;; Hardware stack levels used: 1
  4764 ;; This function calls:
  4765 ;;		Nothing
  4766 ;; This function is called by:
  4767 ;;		_scan_row
  4768 ;; This function uses a non-reentrant model
  4769 ;;
  4770                           
  4771                           
  4772                           ;psect for function ___wmul
  4773  0308                     ___wmul:
  4774  0308                     i1l1412:	
  4775                           ;incstack = 0
  4776                           ; Regs used in ___wmul: [wreg+status,2+status,0]
  4777                           
  4778  0308  01F4               	clrf	___wmul@product
  4779  0309  01F5               	clrf	___wmul@product+1
  4780  030A                     i1l1414:
  4781  030A  1C70               	btfss	___wmul@multiplier,0
  4782  030B  2B0D               	goto	u54_21
  4783  030C  2B0E               	goto	u54_20
  4784  030D                     u54_21:
  4785  030D  2B12               	goto	i1l490
  4786  030E                     u54_20:
  4787  030E                     i1l1416:
  4788  030E  0872               	movf	___wmul@multiplicand,w
  4789  030F  07F4               	addwf	___wmul@product,f
  4790  0310  0873               	movf	___wmul@multiplicand+1,w
  4791  0311  3DF5               	addwfc	___wmul@product+1,f
  4792  0312                     i1l490:
  4793  0312  3001               	movlw	1
  4794  0313                     u55_25:
  4795  0313  35F2               	lslf	___wmul@multiplicand,f
  4796  0314  0DF3               	rlf	___wmul@multiplicand+1,f
  4797  0315  0B89               	decfsz	9,f
  4798  0316  2B13               	goto	u55_25
  4799  0317                     i1l1418:
  4800  0317  3001               	movlw	1
  4801  0318                     u56_25:
  4802  0318  36F1               	lsrf	___wmul@multiplier+1,f
  4803  0319  0CF0               	rrf	___wmul@multiplier,f
  4804  031A  0B89               	decfsz	9,f
  4805  031B  2B18               	goto	u56_25
  4806  031C                     i1l1420:
  4807  031C  0870               	movf	___wmul@multiplier,w
  4808  031D  0471               	iorwf	___wmul@multiplier+1,w
  4809  031E  1D03               	btfss	3,2
  4810  031F  2B21               	goto	u57_21
  4811  0320  2B22               	goto	u57_20
  4812  0321                     u57_21:
  4813  0321  2B0A               	goto	i1l1414
  4814  0322                     u57_20:
  4815  0322                     i1l1422:
  4816  0322  0875               	movf	___wmul@product+1,w
  4817  0323  00F1               	movwf	?___wmul+1
  4818  0324  0874               	movf	___wmul@product,w
  4819  0325  00F0               	movwf	?___wmul
  4820  0326                     i1l492:
  4821  0326  0008               	return
  4822  0327                     __end_of___wmul:
  4823  007E                     btemp	set	126	;btemp
  4824  007E                     int$flags	set	126
  4825  007E                     wtemp0	set	126
  4826                           
  4827                           	psect	idloc
  4828                           
  4829                           ;Config register IDLOC0 @ 0x8000
  4830                           ;	unspecified, using default values
  4831  8000                     	org	32768
  4832  8000  3FFF               	dw	16383
  4833                           
  4834                           ;Config register IDLOC1 @ 0x8001
  4835                           ;	unspecified, using default values
  4836  8001                     	org	32769
  4837  8001  3FFF               	dw	16383
  4838                           
  4839                           ;Config register IDLOC2 @ 0x8002
  4840                           ;	unspecified, using default values
  4841  8002                     	org	32770
  4842  8002  3FFF               	dw	16383
  4843                           
  4844                           ;Config register IDLOC3 @ 0x8003
  4845                           ;	unspecified, using default values
  4846  8003                     	org	32771
  4847  8003  3FFF               	dw	16383
  4848                           
  4849                           	psect	config
  4850                           
  4851                           ;Config register CONFIG1 @ 0x8007
  4852                           ;	Oscillator Selection Bits
  4853                           ;	FOSC = INTOSC, INTOSC oscillator: I/O function on CLKIN pin
  4854                           ;	Watchdog Timer Enable
  4855                           ;	WDTE = OFF, WDT disabled
  4856                           ;	Power-up Timer Enable
  4857                           ;	PWRTE = OFF, PWRT disabled
  4858                           ;	MCLR Pin Function Select
  4859                           ;	MCLRE = OFF, MCLR/VPP pin function is digital input
  4860                           ;	Flash Program Memory Code Protection
  4861                           ;	CP = OFF, Program memory code protection is disabled
  4862                           ;	Brown-out Reset Enable
  4863                           ;	BOREN = ON, Brown-out Reset enabled
  4864                           ;	Clock Out Enable
  4865                           ;	CLKOUTEN = OFF, CLKOUT function is disabled. I/O or oscillator function on the CLKOUT 
      +                          pin
  4866                           ;	Internal/External Switchover Mode
  4867                           ;	IESO = ON, Internal/External Switchover Mode is enabled
  4868                           ;	Fail-Safe Clock Monitor Enable
  4869                           ;	FCMEN = ON, Fail-Safe Clock Monitor is enabled
  4870  8007                     	org	32775
  4871  8007  3FA4               	dw	16292
  4872                           
  4873                           ;Config register CONFIG2 @ 0x8008
  4874                           ;	Flash Memory Self-Write Protection
  4875                           ;	WRT = OFF, Write protection off
  4876                           ;	Peripheral Pin Select one-way control
  4877                           ;	PPS1WAY = ON, The PPSLOCK bit cannot be cleared once it is set by software
  4878                           ;	Zero-cross detect disable
  4879                           ;	ZCDDIS = ON, Zero-cross detect circuit is disabled at POR
  4880                           ;	Phase Lock Loop enable
  4881                           ;	PLLEN = ON, 4x PLL is always enabled
  4882                           ;	Stack Overflow/Underflow Reset Enable
  4883                           ;	STVREN = ON, Stack Overflow or Underflow will cause a Reset
  4884                           ;	Brown-out Reset Voltage Selection
  4885                           ;	BORV = LO, Brown-out Reset Voltage (Vbor), low trip point selected.
  4886                           ;	Low-Power Brown Out Reset
  4887                           ;	LPBOR = OFF, Low-Power BOR is disabled
  4888                           ;	Low-Voltage Programming Enable
  4889                           ;	LVP = OFF, High-voltage on MCLR/VPP must be used for programming
  4890  8008                     	org	32776
  4891  8008  1FFF               	dw	8191

Data Sizes:
    Strings     35
    Constant    30
    Data        0
    BSS         37
    Persistent  32
    Stack       0

Auto Spaces:
    Space          Size  Autos    Used
    COMMON           14     14      14
    BANK0            80     13      50
    BANK1            80      0       0
    BANK2            80      0       0
    BANK3            80      0       0
    BANK4            80      0       0
    BANK5            80      0       0
    BANK6            80      0       0
    BANK7            80      0       0
    BANK8            80      0       0
    BANK9            80      0       0
    BANK10           80      0       0
    BANK11           80      0       0
    BANK12           48      0       0

Pointer List with Targets:

    send_cmd@cmd	PTR unsigned char  size(2) Largest target is 10
		 -> STR_9(CODE[4]), STR_8(CODE[4]), STR_7(CODE[5]), STR_6(CODE[5]), 
		 -> STR_5(CODE[4]), STR_4(CODE[5]), STR_3(CODE[5]), STR_2(CODE[2]), 
		 -> STR_1(CODE[3]), cmd_buf(BANK0[10]), 

    send_cmd@p	PTR unsigned char  size(2) Largest target is 10
		 -> STR_9(CODE[4]), STR_8(CODE[4]), STR_7(CODE[5]), STR_6(CODE[5]), 
		 -> STR_5(CODE[4]), STR_4(CODE[5]), STR_3(CODE[5]), STR_2(CODE[2]), 
		 -> STR_1(CODE[3]), cmd_buf(BANK0[10]), 

    EUSART_SetErrorHandler@interruptHandler	PTR FTN()void  size(2) Largest target is 1
		 -> EUSART_DefaultErrorHandler(), 

    EUSART_ErrorHandler	PTR FTN()void  size(2) Largest target is 1
		 -> EUSART_DefaultErrorHandler(), Absolute function(), 

    EUSART_SetOverrunErrorHandler@interruptHandler	PTR FTN()void  size(2) Largest target is 1
		 -> EUSART_DefaultOverrunErrorHandler(), 

    EUSART_OverrunErrorHandler	PTR FTN()void  size(2) Largest target is 1
		 -> EUSART_DefaultOverrunErrorHandler(), Absolute function(), 

    EUSART_SetFramingErrorHandler@interruptHandler	PTR FTN()void  size(2) Largest target is 1
		 -> EUSART_DefaultFramingErrorHandler(), 

    EUSART_FramingErrorHandler	PTR FTN()void  size(2) Largest target is 1
		 -> EUSART_DefaultFramingErrorHandler(), Absolute function(), 

    TMR0_SetInterruptHandler@InterruptHandler	PTR FTN()void  size(2) Largest target is 1
		 -> timer_int_callback(), TMR0_DefaultInterruptHandler(), 

    TMR0_InterruptHandler	PTR FTN()void  size(2) Largest target is 1
		 -> timer_int_callback(), Absolute function(), TMR0_DefaultInterruptHandler(), 


Critical Paths under _main in COMMON

    None.

Critical Paths under _INTERRUPT_InterruptManager in COMMON

    _timer_int_callback->_scan_row
    _scan_row->___wmul

Critical Paths under _main in BANK0

    _main->_decode_key
    _setup->_clear_buf
    _send_freq->_parse_work_buf
    _send_cmd->_EUSART_Write
    _parse_work_buf->_add_cmd_buf
    _SYSTEM_Initialize->_TMR0_Initialize
    _TMR0_Initialize->_TMR0_SetInterruptHandler
    _EUSART_Initialize->_EUSART_SetErrorHandler
    _EUSART_Initialize->_EUSART_SetFramingErrorHandler
    _EUSART_Initialize->_EUSART_SetOverrunErrorHandler

Critical Paths under _INTERRUPT_InterruptManager in BANK0

    _TMR0_ISR->_timer_int_callback

Critical Paths under _main in BANK1

    None.

Critical Paths under _INTERRUPT_InterruptManager in BANK1

    None.

Critical Paths under _main in BANK2

    None.

Critical Paths under _INTERRUPT_InterruptManager in BANK2

    None.

Critical Paths under _main in BANK3

    None.

Critical Paths under _INTERRUPT_InterruptManager in BANK3

    None.

Critical Paths under _main in BANK4

    None.

Critical Paths under _INTERRUPT_InterruptManager in BANK4

    None.

Critical Paths under _main in BANK5

    None.

Critical Paths under _INTERRUPT_InterruptManager in BANK5

    None.

Critical Paths under _main in BANK6

    None.

Critical Paths under _INTERRUPT_InterruptManager in BANK6

    None.

Critical Paths under _main in BANK7

    None.

Critical Paths under _INTERRUPT_InterruptManager in BANK7

    None.

Critical Paths under _main in BANK8

    None.

Critical Paths under _INTERRUPT_InterruptManager in BANK8

    None.

Critical Paths under _main in BANK9

    None.

Critical Paths under _INTERRUPT_InterruptManager in BANK9

    None.

Critical Paths under _main in BANK10

    None.

Critical Paths under _INTERRUPT_InterruptManager in BANK10

    None.

Critical Paths under _main in BANK11

    None.

Critical Paths under _INTERRUPT_InterruptManager in BANK11

    None.

Critical Paths under _main in BANK12

    None.

Critical Paths under _INTERRUPT_InterruptManager in BANK12

    None.

Call Graph Tables:

 ---------------------------------------------------------------------------------
 (Depth) Function   	        Calls       Base Space   Used Autos Params    Refs
 ---------------------------------------------------------------------------------
 (0) _main                                                 0     0      0    2992
                  _SYSTEM_Initialize
                         _decode_key
                              _setup
 ---------------------------------------------------------------------------------
 (1) _setup                                                0     0      0     264
           _TMR0_SetInterruptHandler
                          _clear_buf
 ---------------------------------------------------------------------------------
 (1) _decode_key                                           5     5      0    2260
                                             10 BANK0      3     3      0
                       _add_work_buf
                        _bs_work_buf
                          _clear_buf
                           _send_cmd
                          _send_freq
 ---------------------------------------------------------------------------------
 (2) _send_freq                                            0     0      0    1254
                     _parse_work_buf
                           _send_cmd
 ---------------------------------------------------------------------------------
 (3) _send_cmd                                             5     3      2     850
                                              4 BANK0      5     3      2
                       _EUSART_Write
 ---------------------------------------------------------------------------------
 (4) _EUSART_Write                                         1     1      0      22
                                              3 BANK0      1     1      0
 ---------------------------------------------------------------------------------
 (3) _parse_work_buf                                       5     5      0     404
                                              5 BANK0      5     5      0
                        _add_cmd_buf
 ---------------------------------------------------------------------------------
 (4) _add_cmd_buf                                          2     2      0      22
                                              3 BANK0      2     2      0
 ---------------------------------------------------------------------------------
 (2) _clear_buf                                            3     3      0      90
                                              3 BANK0      3     3      0
 ---------------------------------------------------------------------------------
 (2) _bs_work_buf                                          1     1      0       0
                                              3 BANK0      1     1      0
 ---------------------------------------------------------------------------------
 (2) _add_work_buf                                         2     2      0      22
                                              3 BANK0      2     2      0
 ---------------------------------------------------------------------------------
 (1) _SYSTEM_Initialize                                    0     0      0     468
                  _EUSART_Initialize
              _OSCILLATOR_Initialize
             _PIN_MANAGER_Initialize
                    _TMR0_Initialize
                     _WDT_Initialize
 ---------------------------------------------------------------------------------
 (2) _WDT_Initialize                                       0     0      0       0
 ---------------------------------------------------------------------------------
 (2) _TMR0_Initialize                                      1     1      0     174
                                              5 BANK0      1     1      0
           _TMR0_SetInterruptHandler
 ---------------------------------------------------------------------------------
 (2) _TMR0_SetInterruptHandler                             2     0      2     174
                                              3 BANK0      2     0      2
 ---------------------------------------------------------------------------------
 (2) _PIN_MANAGER_Initialize                               0     0      0       0
 ---------------------------------------------------------------------------------
 (2) _OSCILLATOR_Initialize                                0     0      0       0
 ---------------------------------------------------------------------------------
 (2) _EUSART_Initialize                                    0     0      0     294
             _EUSART_SetErrorHandler
      _EUSART_SetFramingErrorHandler
      _EUSART_SetOverrunErrorHandler
 ---------------------------------------------------------------------------------
 (3) _EUSART_SetOverrunErrorHandler                        2     0      2      98
                                              3 BANK0      2     0      2
 ---------------------------------------------------------------------------------
 (3) _EUSART_SetFramingErrorHandler                        2     0      2      98
                                              3 BANK0      2     0      2
 ---------------------------------------------------------------------------------
 (3) _EUSART_SetErrorHandler                               2     0      2      98
                                              3 BANK0      2     0      2
 ---------------------------------------------------------------------------------
 Estimated maximum stack depth 4
 ---------------------------------------------------------------------------------
 (Depth) Function   	        Calls       Base Space   Used Autos Params    Refs
 ---------------------------------------------------------------------------------
 (5) _INTERRUPT_InterruptManager                           0     0      0     650
                           _TMR0_ISR
 ---------------------------------------------------------------------------------
 (6) _TMR0_ISR                                             0     0      0     650
                   Absolute function *
       _TMR0_DefaultInterruptHandler *
                 _timer_int_callback *
 ---------------------------------------------------------------------------------
 (7) _timer_int_callback                                   3     3      0     650
                                              0 BANK0      3     3      0
                           _scan_row
 ---------------------------------------------------------------------------------
 (8) _scan_row                                             8     8      0     470
                                              6 COMMON     8     8      0
                             ___wmul
 ---------------------------------------------------------------------------------
 (9) ___wmul                                               6     2      4     244
                                              0 COMMON     6     2      4
 ---------------------------------------------------------------------------------
 (7) _TMR0_DefaultInterruptHandler                         0     0      0       0
 ---------------------------------------------------------------------------------
 (7) Absolute function(Fake)                               0     0      0       0
 ---------------------------------------------------------------------------------
 Estimated maximum stack depth 9
 ---------------------------------------------------------------------------------

 Call Graph Graphs:

 _main (ROOT)
   _SYSTEM_Initialize
     _EUSART_Initialize
       _EUSART_SetErrorHandler
       _EUSART_SetFramingErrorHandler
       _EUSART_SetOverrunErrorHandler
     _OSCILLATOR_Initialize
     _PIN_MANAGER_Initialize
     _TMR0_Initialize
       _TMR0_SetInterruptHandler
     _WDT_Initialize
   _decode_key
     _add_work_buf
     _bs_work_buf
     _clear_buf
     _send_cmd
       _EUSART_Write
     _send_freq
       _parse_work_buf
         _add_cmd_buf
       _send_cmd
   _setup
     _TMR0_SetInterruptHandler
     _clear_buf

 _INTERRUPT_InterruptManager (ROOT)
   _TMR0_ISR
     Absolute function(Fake) *
     _TMR0_DefaultInterruptHandler *
     _timer_int_callback *
       _scan_row
         ___wmul

 Address spaces:
Name               Size   Autos  Total    Cost      Usage
BIGRAM             3F0      0       0       0        0.0%
NULL                 0      0       0       0        0.0%
CODE                 0      0       0       0        0.0%
BITCOMMON            E      0       0       1        0.0%
BITSFR0              0      0       0       1        0.0%
SFR0                 0      0       0       1        0.0%
COMMON               E      E       E       2      100.0%
BITSFR1              0      0       0       2        0.0%
SFR1                 0      0       0       2        0.0%
BITSFR2              0      0       0       3        0.0%
SFR2                 0      0       0       3        0.0%
STACK                0      0       0       3        0.0%
BITBANK0            50      0       0       4        0.0%
BITSFR3              0      0       0       4        0.0%
SFR3                 0      0       0       4        0.0%
BANK0               50      D      32       5       62.5%
BITSFR4              0      0       0       5        0.0%
SFR4                 0      0       0       5        0.0%
BITBANK1            50      0       0       6        0.0%
BITSFR5              0      0       0       6        0.0%
SFR5                 0      0       0       6        0.0%
BANK1               50      0       0       7        0.0%
BITSFR6              0      0       0       7        0.0%
SFR6                 0      0       0       7        0.0%
BITBANK2            50      0       0       8        0.0%
BITSFR7              0      0       0       8        0.0%
SFR7                 0      0       0       8        0.0%
BANK2               50      0       0       9        0.0%
BITSFR8              0      0       0       9        0.0%
SFR8                 0      0       0       9        0.0%
BITBANK3            50      0       0      10        0.0%
BITSFR9              0      0       0      10        0.0%
SFR9                 0      0       0      10        0.0%
BANK3               50      0       0      11        0.0%
BITSFR10             0      0       0      11        0.0%
SFR10                0      0       0      11        0.0%
BITBANK4            50      0       0      12        0.0%
BITSFR11             0      0       0      12        0.0%
SFR11                0      0       0      12        0.0%
BANK4               50      0       0      13        0.0%
BITSFR12             0      0       0      13        0.0%
SFR12                0      0       0      13        0.0%
BITBANK5            50      0       0      14        0.0%
BITSFR13             0      0       0      14        0.0%
SFR13                0      0       0      14        0.0%
BANK5               50      0       0      15        0.0%
BITSFR14             0      0       0      15        0.0%
SFR14                0      0       0      15        0.0%
BITBANK6            50      0       0      16        0.0%
BITSFR15             0      0       0      16        0.0%
SFR15                0      0       0      16        0.0%
BANK6               50      0       0      17        0.0%
BITSFR16             0      0       0      17        0.0%
SFR16                0      0       0      17        0.0%
BITBANK7            50      0       0      18        0.0%
BITSFR17             0      0       0      18        0.0%
SFR17                0      0       0      18        0.0%
BANK7               50      0       0      19        0.0%
BITSFR18             0      0       0      19        0.0%
SFR18                0      0       0      19        0.0%
BITSFR19             0      0       0      20        0.0%
SFR19                0      0       0      20        0.0%
ABS                  0      0      40      20        0.0%
BITBANK8            50      0       0      21        0.0%
BITSFR20             0      0       0      21        0.0%
SFR20                0      0       0      21        0.0%
BANK8               50      0       0      22        0.0%
BITSFR21             0      0       0      22        0.0%
SFR21                0      0       0      22        0.0%
BITBANK9            50      0       0      23        0.0%
BITSFR22             0      0       0      23        0.0%
SFR22                0      0       0      23        0.0%
BANK9               50      0       0      24        0.0%
BITSFR23             0      0       0      24        0.0%
SFR23                0      0       0      24        0.0%
BITBANK10           50      0       0      25        0.0%
BITSFR24             0      0       0      25        0.0%
SFR24                0      0       0      25        0.0%
BANK10              50      0       0      26        0.0%
BITSFR25             0      0       0      26        0.0%
SFR25                0      0       0      26        0.0%
BITBANK11           50      0       0      27        0.0%
BITSFR26             0      0       0      27        0.0%
SFR26                0      0       0      27        0.0%
BANK11              50      0       0      28        0.0%
BITSFR27             0      0       0      28        0.0%
SFR27                0      0       0      28        0.0%
BITBANK12           30      0       0      29        0.0%
BITSFR28             0      0       0      29        0.0%
SFR28                0      0       0      29        0.0%
BANK12              30      0       0      30        0.0%
BITSFR29             0      0       0      30        0.0%
SFR29                0      0       0      30        0.0%
BITSFR30             0      0       0      31        0.0%
SFR30                0      0       0      31        0.0%
DATA                 0      0      40      31        0.0%
BITSFR31             0      0       0      32        0.0%
SFR31                0      0       0      32        0.0%


Microchip Technology PIC Macro Assembler V2.32 build 20210201212658 
Symbol Table                                                                                   Wed Dec 21 21:09:55 2022

                                           l49 027A                                             l91 03C8  
                                           l94 03CD                                             l88 03B0  
                                           l97 0414                                 _parse_work_buf 0021  
                          ___wmul@multiplicand 0072                                _timer0ReloadVal 003A  
                         __size_of_add_cmd_buf 0015                                            l200 03D0  
                                          l130 03E3                                            l114 0353  
                                          l203 03D7                                            l221 03EF  
                                          l302 0036                                            l224 03E9  
                                          l400 01E6                                            l313 00C8  
                                          l227 03F5                                            l413 038F  
                                          l176 02A0                                            l283 0251  
                                          l291 0368                                            l382 02E5  
                                          l287 037D                                            l295 03A0  
                                          l376 0305                                            l378 0307  
                                          u600 005B                                            u520 03D4  
                                          u601 005A                                            u521 03D3  
                                          u530 035C                                            u610 006D  
                                          u531 035B                                            u611 006C  
                                          u620 007B                                            u621 007A  
                                          u605 0057                                            u630 0099  
                                          u631 0098                                            u615 0069  
                                          u800 03CD                                            u640 00AE  
                                          u801 03CC                                            u641 00AD  
                                          u625 0077                                            u810 024D  
                                          u650 00BA                                            u811 024C  
                                          u651 00B9                                            u635 0095  
                                          u820 0371                                            u580 002F  
                                          u821 0370                                            u645 00AA  
                                          u581 002E                                            u830 0396  
                                          u590 003B                                            u831 0395  
                                          u815 0249                                            u591 003A  
                                          u930 0164                                            u931 0163  
                                          u940 0187                                            u941 0186  
                                          u790 0305                                            u791 0304  
                                          u890 02CA                                            u970 0335  
                                          u891 02C9                                            u971 0334  
                                          _key 02A1                 ?_EUSART_SetFramingErrorHandler 0048  
                                          wreg 0009                                           l1410 0364  
                                         l1402 03D0                                           l1404 03D4  
                                         l1430 03E4                                           l1406 0356  
                                         l1432 03F0                                           l1600 0240  
                                         l1408 035C                                           l1440 0024  
                                         l1520 02F6                                           l1530 0259  
                                         l1426 03DE                                           l1610 0390  
                                         l1602 024D                                           l1450 004D  
                                         l1442 002F                                           l1434 0021  
                                         l1522 02FB                                           l1514 02E6  
                                         l1428 03EA                                           l1540 0263  
                                         l1532 025B                                           l1524 0252  
                                         l1604 036B                                           l1612 0396  
                                         l1444 003B                                           l1452 005C  
                                         l1516 02EB                                           l1700 0182  
                                         l1550 026F                                           l1542 0265  
                                         l1534 025D                                           l1526 0254  
                                         l1606 0371                                           l1470 00A1  
                                         l1462 007E                                           l1454 006D  
                                         l1446 0040                                           l1518 02EE  
                                         l1702 0187                                           l1560 03C4  
                                         l1552 0272                                           l1544 0268  
                                         l1536 025E                                           l1528 0256  
                                         l1608 0379                                           l1464 0087  
                                         l1456 007B                                           l1448 0048  
                                         l1720 01AA                                           l1712 019A  
                                         l1704 0189                                           l1562 03C5  
                                         l1554 0274                                           l1546 026A  
                                         l1538 0261                                           l1570 0343  
                                         l1474 00AF                                           l1466 008C  
                                         l1650 02CA                                           l1722 01AE  
                                         l1706 0191                                           l1580 027B  
                                         l1564 03C6                                           l1556 0277  
                                         l1548 026D                                           l1572 0346  
                                         l1476 00BA                                           l1468 009A  
                                         l1652 02CD                                           l1716 01A2  
                                         l1708 0192                                           l1732 01C4  
                                         l1740 037E                                           l1582 0286  
                                         l1558 03C1                                           l1574 034A  
                                         l1566 0411                                           l1590 0226  
                                         l1478 00C2                                           l1654 02D5  
                                         l1814 01CC                                           l1726 01B2  
                                         l1750 038B                                           l1742 0386  
                                         l1584 028E                                           l1576 034B  
                                         l1568 033E                                           l1656 02DD  
                                         l1648 02C4                                           l1728 01BF  
                                         l1752 038C                                           l1744 0388  
                                         l1586 0296                                           l1578 034C  
                                         l1690 016E                                           l1682 015E  
                                         l1746 0389                                           l1770 0327  
                                         l1588 029E                                           l1668 03A1  
                                         l1596 022B                                           l1692 016F  
                                         l1684 015F                                           l1748 038A  
                                         l1780 0335                                           l1772 032A  
                                         l1598 023C                                           l1694 0176  
                                         l1686 0164                                           l1782 0339  
                                         l1774 032B                                           l1696 017A  
                                         l1688 0166                                           l1776 032C  
                                         l1778 032F                                           STR_1 0415  
                                         STR_2 02C2                                           STR_3 03FB  
                                         STR_4 02BF                                           STR_5 0405  
                                         STR_6 0400                                           STR_7 03F6  
                                         STR_8 040D                                           STR_9 0409  
                                         _LATA 010C                                           _LATC 010E  
                                         i1l63 0011                                           _PLLR 04D6  
                                         _TMR0 0015                                           _WPUA 020C  
                                         _WPUC 020E                                           _main 0327  
                                         fsr0h 0005                                           fsr1h 0007  
                                         indf0 0000                                           fsr0l 0004  
                                         indf1 0001                                           fsr1l 0006  
                                         btemp 007E                                           start 0013  
                       __end_of_parse_work_buf 00C9                        __end_of_TMR0_Initialize 0354  
               ??_TMR0_DefaultInterruptHandler 0070                                  ?_EUSART_Write 0070  
               __size_of_OSCILLATOR_Initialize 000D                  __end_of_OSCILLATOR_Initialize 03CE  
                                        ?_main 0070                                          i1l133 0418  
                                        i1l127 03C0                                          i1l321 00D9  
                                        i1l331 00F5                                          i1l341 011E  
                                        i1l333 00FE                                          i1l325 00E2  
                                        i1l317 00D0                                          i1l334 0119  
                                        i1l335 0107                                          i1l319 00ED  
                                        i1l353 0139                                          i1l345 0127  
                                        i1l337 0110                                          i1l329 00EB  
                                        i1l355 015B                                          i1l349 0130  
                                        i1l367 0225                                          i1l368 0225  
                                        i1l490 0312                                          i1l492 0326  
                        __size_of_add_work_buf 0015                                          u54_20 030E  
                                        u70_20 00F2                                          u54_21 030D  
                                        u70_21 00F1                                          u71_20 00F9  
                                        u71_21 00F8                                          u55_25 0313  
                                        u72_20 0102                                          u72_21 0101  
                                        u56_25 0318                                          u57_20 0322  
                                        u73_20 010B                                          u57_21 0321  
                                        u73_21 010A                                          _TRISA 008C  
                                        _TRISC 008E                                          u74_20 0114  
                                        u66_20 00D0                                          u90_20 03BB  
                                        u74_21 0113                                          u66_21 00CF  
                                        u90_21 03BA                                          u75_20 011E  
                                        u67_20 00D9                                          u75_21 011D  
                                        u67_21 00D8                                          u76_20 0127  
                                        u68_20 00E2                                          u84_20 01F7  
                                        u76_21 0126                                          u68_21 00E1  
                                        u84_21 01F6                                          u77_20 0130  
                                        u69_20 00EB                                          u85_20 0203  
                                        u77_21 012F                                          u69_21 00EA  
                                        u85_21 0202                                          u78_20 0139  
                                        u86_20 0208                                          u78_21 0138  
                                        u86_21 0207                                          u87_20 020E  
                                        u95_20 000A                                          u87_21 020D  
                                        u95_21 0009                                          u88_20 0217  
                                        u96_20 000E                                          u88_21 0216  
                                        u96_21 000D                                          _RXPPS 0E24  
            __size_of_TMR0_SetInterruptHandler 0006                      ?_TMR0_SetInterruptHandler 0048  
                             __end_of_TMR0_ISR 03C1                                 _WDT_Initialize 0411  
                                        _setup 037E                                          pclath 000A  
                                        status 0003                                          wtemp0 007E  
                              parse_work_buf@i 004B                                parse_work_buf@j 004D  
                              __initialization 0015                                   __end_of_main 033E  
                              ?_parse_work_buf 0070                                   _add_work_buf 0369  
                               ??_EUSART_Write 0048                    ?_INTERRUPT_InterruptManager 0070  
                     timer_int_callback@repeat 0032                                         ??_main 0052  
                       __end_of_WDT_Initialize 0415              _EUSART_DefaultFramingErrorHandler 0000  
                   _EUSART_OverrunErrorHandler 002C                                         ?_setup 0070  
                                       _ANSELA 018C                                         _ANSELC 018E  
                                       _BORCON 0116                                         _RC1REG 0199  
                                       _RC1STA 019D                                         _RC4PPS 0EA4  
                                       i1l1420 031C                                         i1l1412 0308  
                                       i1l1500 0114                                         i1l1422 0322  
                                       i1l1414 030A                                         i1l1510 013B  
                                       i1l1502 0119                                         i1l1416 030E  
                                       i1l1504 0121                                         _ODCONA 028C  
                                       i1l1418 0317                                         i1l1506 012A  
                                       _ODCONC 028E                                         i1l1508 0133  
                                       i1l1630 01FC                                         i1l1622 01EA  
                                       i1l1614 01E7                                         i1l1640 021C  
                                       i1l1632 0203                                         i1l1624 01F2  
                                       i1l1616 01E7                                         i1l1490 00E5  
                                       i1l1482 00CA                                         i1l1642 021D  
                                       i1l1634 0208                                         i1l1492 00F2  
                                       i1l1484 00CB                                         i1l1636 020E  
                                       i1l1644 0222                                         i1l1628 01F8  
                                       i1l1660 03B1                                         i1l1494 00F9  
                                       i1l1486 00D3                                         i1l1638 0217  
                                       i1l1662 03B2                                         i1l1496 0102  
                                       i1l1488 00DC                                         i1l1664 03B5  
                                       i1l1760 000E                                         i1l1498 010B  
                                       i1l1666 03BB                                         i1l1756 0006  
                                       i1l1758 000A                                         _INLVLA 038C  
                                       _INLVLC 038E                                   _work_cur_pos 0034  
                                       _OSCCON 0099                                         _TX1REG 019A  
                                       _WDTCON 0097                                         _TX1STA 019E  
                                       ___wmul 0308                           __size_of_bs_work_buf 0011  
                             ?_TMR0_Initialize 0070                               __end_of_scan_row 015C  
                             __end_of_send_cmd 0308                                ?_WDT_Initialize 0070  
                               add_cmd_buf@key 0049       TMR0_SetInterruptHandler@InterruptHandler 0048  
                            _SYSTEM_Initialize 03A1                        __end_of__initialization 001D  
                           ?_SYSTEM_Initialize 0070                             _timer_int_callback 01E7  
                               __pcstackCOMMON 0070                            ??_SYSTEM_Initialize 004B  
                                    ?_TMR0_ISR 0070                                  __end_of_setup 0390  
                          ?_timer_int_callback 0070                             __size_of_clear_buf 002C  
                                  scan_row@col 007D                                    scan_row@row 007C  
                               _OPTION_REGbits 0095                ??_EUSART_SetOverrunErrorHandler 004A  
                    __end_of_SYSTEM_Initialize 03B1                                  decode_key@key 0051  
                                      ??_setup 004B                                     __pbssBANK0 0020  
                         ??_timer_int_callback 0045                           __end_of_EUSART_Write 03D8  
                                   _decode_key 015C                                     __pmaintext 0327  
             __end_of_TMR0_SetInterruptHandler 03E4                                        ?___wmul 0070  
                                   ??_TMR0_ISR 007E                                  ??_add_cmd_buf 0048  
                                   __pintentry 0004                                add_work_buf@key 0049  
                           __size_of_send_freq 0022                            timer_int_callback@i 0046  
                                      _SP1BRGH 019C                                        _SP1BRGL 019B  
                                      _OSCSTAT 009A                                        _OSCTUNE 0098  
                                  send_cmd@cmd 0049                                        _SLRCONA 030C  
                                      _SLRCONC 030E                       ??_EUSART_SetErrorHandler 004A  
                            __end_of_clear_buf 0252                               ??_parse_work_buf 004A  
                                    ?_scan_row 0070                                      ?_send_cmd 0049  
                              __size_of___wmul 001F                                        _cmd_buf 003B  
                                      __ptext1 037E                                        __ptext2 015C  
                                      __ptext3 02C4                                        __ptext4 02E6  
                                      __ptext5 03CE                                        __ptext6 0021  
                                      __ptext7 0354                                        __ptext8 0226  
                                      __ptext9 0390                          _OSCILLATOR_Initialize 03C1  
                          __end_of_add_cmd_buf 0369                       ??_PIN_MANAGER_Initialize 0048  
                   __size_of_SYSTEM_Initialize 0010                                        clrloop0 03D9  
                         end_of_initialization 001D                                     clear_buf@i 0049  
                            __end_of_send_freq 02E6                                    ?_decode_key 0070  
        __end_of_EUSART_SetOverrunErrorHandler 03EA         __size_of_EUSART_SetOverrunErrorHandler 0006  
                _EUSART_SetOverrunErrorHandler 03E4                                     ??_scan_row 0076  
                            _EUSART_Initialize 027B                                     ??_send_cmd 004B  
                           ?_EUSART_Initialize 0070                            ??_EUSART_Initialize 004A  
                             ??_WDT_Initialize 0048                       _TMR0_SetInterruptHandler 03DE  
                                    _PORTAbits 000C                                      _PORTCbits 000E  
                        __size_of_EUSART_Write 000A                __size_of_EUSART_SetErrorHandler 0006  
                    __end_of_EUSART_Initialize 02A1                                  ??_bs_work_buf 0048  
                                  _add_cmd_buf 0354                     _EUSART_DefaultErrorHandler 0000  
                               __end_of___wmul 0327                                   _EUSART_Write 03CE  
                            __size_of_TMR0_ISR 0010                            __size_of_decode_key 008B  
                       ?_OSCILLATOR_Initialize 0070                            start_initialization 0015  
                     __size_of_TMR0_Initialize 0016                __size_of_PIN_MANAGER_Initialize 0029  
                                  __end_of_key 02BF                 ?_EUSART_SetOverrunErrorHandler 0048  
                   _EUSART_FramingErrorHandler 002E                                       ??___wmul 0074  
                       _EUSART_SetErrorHandler 03F0                            __end_of_bs_work_buf 03A1  
                                    ___latbits 0002                                  __pcstackBANK0 0045  
                  __size_of_timer_int_callback 003F                     __size_of_EUSART_Initialize 0026  
                        _TMR0_InterruptHandler 0030                                    _cmd_cur_pos 0033  
                       _PIN_MANAGER_Initialize 0252                                      _clear_buf 0226  
                            __size_of_scan_row 0093                              __size_of_send_cmd 0022  
                                ?_add_work_buf 0070                                      _fast_mode 0035  
                 ??_INTERRUPT_InterruptManager 007E                                       _BAUD1CON 019F  
                                    _last_code 0038                                 __size_of_setup 0012  
                                    _lock_mode 0036                                   ??_decode_key 004F  
                            ??_TMR0_Initialize 004A                                 ___wmul@product 0074  
                                     _LATAbits 010C         EUSART_SetErrorHandler@interruptHandler 0048  
                                     _LATCbits 010E                                      clear_ram0 03D8  
                            _eusartRxLastError 0039                                      _send_freq 02C4  
          __size_of_INTERRUPT_InterruptManager 000F                     ??_TMR0_SetInterruptHandler 004A  
                                     _PIR1bits 0011                ??_EUSART_SetFramingErrorHandler 004A  
                                   ?_clear_buf 0070                                    _bs_work_buf 0390  
                               ??_add_work_buf 0048                                       _TMR0_ISR 03B1  
            _EUSART_DefaultOverrunErrorHandler 0000                              ___wmul@multiplier 0070  
                           __end_of_decode_key 01E7                         timer_int_callback@code 0047  
                                   ?_send_freq 0070                        ??_OSCILLATOR_Initialize 0048  
                          _EUSART_ErrorHandler 002A                                   ?_add_cmd_buf 0070  
                      __size_of_parse_work_buf 00A8                                       __ptext10 0369  
                                     __ptext11 03A1                                       __ptext20 03F0  
                                     __ptext12 0411                                       __ptext13 033E  
                                     __ptext22 03B1                                       __ptext14 03DE  
                                     __ptext23 0418                                       __ptext15 0252  
                                     __ptext24 01E7                                       __ptext16 03C1  
                                     __ptext25 00C9                                       __ptext17 027B  
                                     __ptext26 0308                                       __ptext18 03E4  
                                     __ptext19 03EA                                      send_cmd@p 004C  
                                     _key_code 0037                                  __size_of_main 0017  
                                     _scan_row 00C9           __end_of_TMR0_DefaultInterruptHandler 0419  
        __size_of_TMR0_DefaultInterruptHandler 0001                   _TMR0_DefaultInterruptHandler 0418  
                      ?_EUSART_SetErrorHandler 0048                                       _send_cmd 02E6  
                                  ??_clear_buf 0048                                     _RC1STAbits 019D  
EUSART_SetOverrunErrorHandler@interruptHandler 0048                                       int$flags 007E  
           __end_of_INTERRUPT_InterruptManager 0013                     _INTERRUPT_InterruptManager 0004  
        __end_of_EUSART_SetFramingErrorHandler 03F0         __size_of_EUSART_SetFramingErrorHandler 0006  
                _EUSART_SetFramingErrorHandler 03EA                                       _work_buf 0020  
                                   _INTCONbits 000B                           __end_of_add_work_buf 037E  
                      __size_of_WDT_Initialize 0004                                       intlevel1 0000  
                      ?_PIN_MANAGER_Initialize 0070                 __end_of_EUSART_SetErrorHandler 03F6  
                                  ??_send_freq 004F                  ?_TMR0_DefaultInterruptHandler 0070  
EUSART_SetFramingErrorHandler@interruptHandler 0048                                  __pstringtext1 02A1  
                                __pstringtext2 03F6                                  __pstringtext3 03FB  
                                __pstringtext4 0400                                  __pstringtext5 0405  
                                __pstringtext6 0409                                  __pstringtext7 040D  
                                __pstringtext8 0415                                  __pstringtext9 0000  
                                   _OPTION_REG 0095                                _TMR0_Initialize 033E  
                                   _TX1STAbits 019E                     __end_of_timer_int_callback 0226  
                           EUSART_Write@txData 0048                 __end_of_PIN_MANAGER_Initialize 027B  
                                 ?_bs_work_buf 0070  
